 odbc_bindings

 Timestamp is 56983762 (Fri Jan 15 01:03:46 2016)

 Preferred load address is 10000000

 Start         Length     Name                   Class
 0001:00000000 0000025fH .text                   CODE
 0001:00000260 000000f6H .text$di                CODE
 0001:00000360 000217b7H .text$mn                CODE
 0001:00021b20 00000071H .text$yd                CODE
 0002:00000000 00000188H .idata$5                DATA
 0002:00000188 00000004H .00cfg                  DATA
 0002:0000018c 00000004H .CRT$XCA                DATA
 0002:00000190 00000024H .CRT$XCU                DATA
 0002:000001b4 00000004H .CRT$XCZ                DATA
 0002:000001b8 00000004H .CRT$XIA                DATA
 0002:000001bc 00000010H .CRT$XIC                DATA
 0002:000001cc 00000004H .CRT$XIZ                DATA
 0002:000001d0 00000004H .CRT$XPA                DATA
 0002:000001d4 00000008H .CRT$XPX                DATA
 0002:000001dc 00000004H .CRT$XPXA               DATA
 0002:000001e0 00000004H .CRT$XPZ                DATA
 0002:000001e4 00000004H .CRT$XTA                DATA
 0002:000001e8 00000004H .CRT$XTZ                DATA
 0002:000001f0 00006a24H .rdata                  DATA
 0002:00006c14 0000012cH .rdata$r                DATA
 0002:00006d40 0000000cH .rdata$sxdata           DATA
 0002:00006d50 00000010H .rdata$zETW0            DATA
 0002:00006d60 00000077H .rdata$zETW1            DATA
 0002:00006dd7 0000002cH .rdata$zETW2            DATA
 0002:00006e03 00000001H .rdata$zETW9            DATA
 0002:00006e04 00000448H .rdata$zzzdbg           DATA
 0002:0000724c 00000004H .rtc$IAA                DATA
 0002:00007250 00000004H .rtc$IZZ                DATA
 0002:00007254 00000004H .rtc$TAA                DATA
 0002:00007258 00000004H .rtc$TZZ                DATA
 0002:00007260 000004fcH .xdata$x                DATA
 0002:0000775c 00000020H .didat$2                DATA
 0002:0000777c 00000020H .didat$3                DATA
 0002:0000779c 000001e0H .didat$4                DATA
 0002:0000797c 00001d3aH .didat$6                DATA
 0002:000096b8 000001e0H .didat$7                DATA
 0002:000098a0 00004350H .edata                  DATA
 0002:0000dbf0 0000003cH .idata$2                DATA
 0002:0000dc2c 00000014H .idata$3                DATA
 0002:0000dc40 00000188H .idata$4                DATA
 0002:0000ddc8 00000574H .idata$6                DATA
 0003:00000000 000008a0H .data                   DATA
 0003:000008a0 00000078H .data$r                 DATA
 0003:00000918 000001e0H .didat$5                DATA
 0003:00000af8 00000ab0H .bss                    DATA
 0004:00000000 00000090H .gfids$x                DATA
 0004:00000090 0000004cH .gfids$y                DATA
 0005:00000000 00000058H .rsrc$01                DATA
 0005:00000060 00000180H .rsrc$02                DATA

  Address         Publics by Value              Rva+Base       Lib:Object

 0000:00000000       __except_list              00000000     <absolute>
 0000:00000000       ___guard_longjmp_count     00000000     <absolute>
 0000:00000000       ___guard_fids_count        00000000     <absolute>
 0000:00000000       ___guard_longjmp_table     00000000     <absolute>
 0000:00000000       ___guard_iat_table         00000000     <absolute>
 0000:00000000       ___guard_iat_count         00000000     <absolute>
 0000:00000000       ___guard_fids_table        00000000     <absolute>
 0000:00000003       ___safe_se_handler_count   00000003     <absolute>
 0000:00000100       ___guard_flags             00000100     <absolute>
 0000:00000000       ___ImageBase               10000000     <linker-defined>
 0001:00000000       ?TraceLoggingRegister@__vcrt_trace_logging_provider@@YAJPBU_TlgProvider_t@1@PBU_GUID@@P6GX1KE_K2PAU_EVENT_FILTER_DESCRIPTOR@@PAX@Z4@Z 10001000 f i libvcruntime:telemetry.obj
 0001:0000005d       ?TraceLoggingSetInformation@__vcrt_trace_logging_provider@@YAJPBU_TlgProvider_t@1@W4_EVENT_INFO_CLASS@@PAXK@Z 1000105d f i libvcruntime:telemetry.obj
 0001:00000088       ?TraceLoggingUnregister@__vcrt_trace_logging_provider@@YAXPBU_TlgProvider_t@1@@Z 10001088 f i libvcruntime:telemetry.obj
 0001:000000a7       ?_TlgCreateSz@__vcrt_trace_logging_provider@@YAXPAU_EVENT_DATA_DESCRIPTOR@@PBD@Z 100010a7 f i libvcruntime:telemetry.obj
 0001:000000df       ?_TlgCreateWsz@__vcrt_trace_logging_provider@@YAXPAU_EVENT_DATA_DESCRIPTOR@@PB_W@Z 100010df f i libvcruntime:telemetry.obj
 0001:00000123       ?_TlgEnableCallback@__vcrt_trace_logging_provider@@YGXPBU_GUID@@KE_K1PAU_EVENT_FILTER_DESCRIPTOR@@PAX@Z 10001123 f i libvcruntime:telemetry.obj
 0001:0000019b       ?_TlgKeywordOn@__vcrt_trace_logging_provider@@YAEPBU_TlgProvider_t@1@_K@Z 1000119b f i libvcruntime:telemetry.obj
 0001:000001d7       ?_TlgWrite@__vcrt_trace_logging_provider@@YAJPBU_TlgProvider_t@1@PBXPBU_GUID@@2IPAU_EVENT_DATA_DESCRIPTOR@@@Z 100011d7 f i libvcruntime:telemetry.obj
 0001:00000360       ??DValue@String@v8@@QBEPBGXZ 10001360 f i odbc.obj
 0001:00000360       ?object_type@HeapObjectStatistics@v8@@QAEPBDXZ 10001360 f i odbc.obj
 0001:00000360       ?max_semi_space_size@ResourceConstraints@v8@@QBEHXZ 10001360 f i odbc.obj
 0001:00000360       ??DValue@String@v8@@QAEPAGXZ 10001360 f i odbc.obj
 0001:00000360       ?total_heap_size@HeapStatistics@v8@@QAEIXZ 10001360 f i odbc.obj
 0001:00000360       ??DUtf8Value@String@v8@@QBEPBDXZ 10001360 f i odbc.obj
 0001:00000360       ?space_name@HeapSpaceStatistics@v8@@QAEPBDXZ 10001360 f i odbc.obj
 0001:00000360       ??DUtf8Value@String@v8@@QAEPADXZ 10001360 f i odbc.obj
 0001:00000360       ?GetIsolate@HandleScope@v8@@QBEPAVIsolate@2@XZ 10001360 f i odbc.obj
 0001:00000360       ?impl@StreamedSource@ScriptCompiler@v8@@QBEPAU1internal@3@XZ 10001360 f i odbc.obj
 0001:00000360       ?Data@Contents@ArrayBuffer@v8@@QBEPAXXZ 10001360 f i odbc.obj
 0001:00000360       ?Data@Contents@SharedArrayBuffer@v8@@QBEPAXXZ 10001360 f i odbc.obj
 0001:00000370       ??0HandleScope@v8@@IAE@XZ  10001370 f i odbc.obj
 0001:00000380       ??1EscapableHandleScope@v8@@QAE@XZ 10001380 f i odbc.obj
 0001:00000390       ??4Uint8Array@v8@@QAEAAV01@$$QAV01@@Z 10001390 f i odbc.obj
 0001:00000390       ??4External@v8@@QAEAAV01@$$QAV01@@Z 10001390 f i odbc.obj
 0001:00000390       ??4V8@v8@@QAEAAV01@ABV01@@Z 10001390 f i odbc.obj
 0001:00000390       ??4Float32Array@v8@@QAEAAV01@ABV01@@Z 10001390 f i odbc.obj
 0001:00000390       ??4Date@v8@@QAEAAV01@ABV01@@Z 10001390 f i odbc.obj
 0001:00000390       ??4ExternalSourceStream@ScriptCompiler@v8@@QAEAAV012@ABV012@@Z 10001390 f i odbc.obj
 0001:00000390       ??4Promise@v8@@QAEAAV01@$$QAV01@@Z 10001390 f i odbc.obj
 0001:00000390       ??4StringObject@v8@@QAEAAV01@$$QAV01@@Z 10001390 f i odbc.obj
 0001:00000390       ??4Message@v8@@QAEAAV01@ABV01@@Z 10001390 f i odbc.obj
 0001:00000390       ??4TypedArray@v8@@QAEAAV01@$$QAV01@@Z 10001390 f i odbc.obj
 0001:00000390       ??4RegExp@v8@@QAEAAV01@$$QAV01@@Z 10001390 f i odbc.obj
 0001:00000390       ??4String@v8@@QAEAAV01@$$QAV01@@Z 10001390 f i odbc.obj
 0001:00000390       ??4ArrayBufferView@v8@@QAEAAV01@$$QAV01@@Z 10001390 f i odbc.obj
 0001:00000390       ??4Promise@v8@@QAEAAV01@ABV01@@Z 10001390 f i odbc.obj
 0001:00000390       ??4NativeWeakMap@v8@@QAEAAV01@ABV01@@Z 10001390 f i odbc.obj
 0001:00000390       ??4PersistentHandleVisitor@v8@@QAEAAV01@ABV01@@Z 10001390 f i odbc.obj
 0001:00000390       ??4ObjectTemplate@v8@@QAEAAV01@$$QAV01@@Z 10001390 f i odbc.obj
 0001:00000390       ??4Symbol@v8@@QAEAAV01@$$QAV01@@Z 10001390 f i odbc.obj
 0001:00000390       ??4Template@v8@@QAEAAV01@ABV01@@Z 10001390 f i odbc.obj
 0001:00000390       ??4Template@v8@@QAEAAV01@$$QAV01@@Z 10001390 f i odbc.obj
 0001:00000390       ??4Signature@v8@@QAEAAV01@ABV01@@Z 10001390 f i odbc.obj
 0001:00000390       ??4Int32@v8@@QAEAAV01@$$QAV01@@Z 10001390 f i odbc.obj
 0001:00000390       ??4SymbolObject@v8@@QAEAAV01@ABV01@@Z 10001390 f i odbc.obj
 0001:00000390       ??4Value@v8@@QAEAAV01@$$QAV01@@Z 10001390 f i odbc.obj
 0001:00000390       ??4Int8Array@v8@@QAEAAV01@ABV01@@Z 10001390 f i odbc.obj
 0001:00000390       ??4String@v8@@QAEAAV01@ABV01@@Z 10001390 f i odbc.obj
 0001:00000390       ??4Integer@v8@@QAEAAV01@ABV01@@Z 10001390 f i odbc.obj
 0001:00000390       ??4DataView@v8@@QAEAAV01@$$QAV01@@Z 10001390 f i odbc.obj
 0001:00000390       ??4ArrayBuffer@v8@@QAEAAV01@$$QAV01@@Z 10001390 f i odbc.obj
 0001:00000390       ??4SharedArrayBuffer@v8@@QAEAAV01@ABV01@@Z 10001390 f i odbc.obj
 0001:00000390       ??4Primitive@v8@@QAEAAV01@ABV01@@Z 10001390 f i odbc.obj
 0001:00000390       ??4NumberObject@v8@@QAEAAV01@$$QAV01@@Z 10001390 f i odbc.obj
 0001:00000390       ??4NumberObject@v8@@QAEAAV01@ABV01@@Z 10001390 f i odbc.obj
 0001:00000390       ??4Resolver@Promise@v8@@QAEAAV012@$$QAV012@@Z 10001390 f i odbc.obj
 0001:00000390       ??4FunctionTemplate@v8@@QAEAAV01@ABV01@@Z 10001390 f i odbc.obj
 0001:00000390       ??4Script@v8@@QAEAAV01@$$QAV01@@Z 10001390 f i odbc.obj
 0001:00000390       ??4Uint8ClampedArray@v8@@QAEAAV01@ABV01@@Z 10001390 f i odbc.obj
 0001:00000390       ??4Set@v8@@QAEAAV01@$$QAV01@@Z 10001390 f i odbc.obj
 0001:00000390       ??4BooleanObject@v8@@QAEAAV01@$$QAV01@@Z 10001390 f i odbc.obj
 0001:00000390       ??4Object@v8@@QAEAAV01@$$QAV01@@Z 10001390 f i odbc.obj
 0001:00000390       ??4SharedArrayBuffer@v8@@QAEAAV01@$$QAV01@@Z 10001390 f i odbc.obj
 0001:00000390       ??4Int16Array@v8@@QAEAAV01@$$QAV01@@Z 10001390 f i odbc.obj
 0001:00000390       ??4External@v8@@QAEAAV01@ABV01@@Z 10001390 f i odbc.obj
 0001:00000390       ??4StackTrace@v8@@QAEAAV01@ABV01@@Z 10001390 f i odbc.obj
 0001:00000390       ??4DataView@v8@@QAEAAV01@ABV01@@Z 10001390 f i odbc.obj
 0001:00000390       ??4UnboundScript@v8@@QAEAAV01@ABV01@@Z 10001390 f i odbc.obj
 0001:00000390       ??4Int16Array@v8@@QAEAAV01@ABV01@@Z 10001390 f i odbc.obj
 0001:00000390       ??4FunctionTemplate@v8@@QAEAAV01@$$QAV01@@Z 10001390 f i odbc.obj
 0001:00000390       ??4Context@v8@@QAEAAV01@$$QAV01@@Z 10001390 f i odbc.obj
 0001:00000390       ??4StackFrame@v8@@QAEAAV01@$$QAV01@@Z 10001390 f i odbc.obj
 0001:00000390       ??4Boolean@v8@@QAEAAV01@$$QAV01@@Z 10001390 f i odbc.obj
 0001:00000390       ??4Exception@v8@@QAEAAV01@ABV01@@Z 10001390 f i odbc.obj
 0001:00000390       ??4Uint8ClampedArray@v8@@QAEAAV01@$$QAV01@@Z 10001390 f i odbc.obj
 0001:00000390       ??4Uint16Array@v8@@QAEAAV01@$$QAV01@@Z 10001390 f i odbc.obj
 0001:00000390       ??4BooleanObject@v8@@QAEAAV01@ABV01@@Z 10001390 f i odbc.obj
 0001:00000390       ??4Resolver@Promise@v8@@QAEAAV012@ABV012@@Z 10001390 f i odbc.obj
 0001:00000390       ??4Map@v8@@QAEAAV01@ABV01@@Z 10001390 f i odbc.obj
 0001:00000390       ??4Int32@v8@@QAEAAV01@ABV01@@Z 10001390 f i odbc.obj
 0001:00000390       ??4Data@v8@@QAEAAV01@$$QAV01@@Z 10001390 f i odbc.obj
 0001:00000390       ??4V8@v8@@QAEAAV01@$$QAV01@@Z 10001390 f i odbc.obj
 0001:00000390       ??4Function@v8@@QAEAAV01@ABV01@@Z 10001390 f i odbc.obj
 0001:00000390       ??4Set@v8@@QAEAAV01@ABV01@@Z 10001390 f i odbc.obj
 0001:00000390       ??4JSON@v8@@QAEAAV01@ABV01@@Z 10001390 f i odbc.obj
 0001:00000390       ??4Object@v8@@QAEAAV01@ABV01@@Z 10001390 f i odbc.obj
 0001:00000390       ??4Array@v8@@QAEAAV01@ABV01@@Z 10001390 f i odbc.obj
 0001:00000390       ??4Message@v8@@QAEAAV01@$$QAV01@@Z 10001390 f i odbc.obj
 0001:00000390       ??4Data@v8@@QAEAAV01@ABV01@@Z 10001390 f i odbc.obj
 0001:00000390       ??4Array@v8@@QAEAAV01@$$QAV01@@Z 10001390 f i odbc.obj
 0001:00000390       ??4Name@v8@@QAEAAV01@ABV01@@Z 10001390 f i odbc.obj
 0001:00000390       ??4Function@v8@@QAEAAV01@$$QAV01@@Z 10001390 f i odbc.obj
 0001:00000390       ??4Uint32Array@v8@@QAEAAV01@$$QAV01@@Z 10001390 f i odbc.obj
 0001:00000390       ??4Allocator@ArrayBuffer@v8@@QAEAAV012@ABV012@@Z 10001390 f i odbc.obj
 0001:00000390       ??4StackFrame@v8@@QAEAAV01@ABV01@@Z 10001390 f i odbc.obj
 0001:00000390       ??4Uint32@v8@@QAEAAV01@ABV01@@Z 10001390 f i odbc.obj
 0001:00000390       ??4Exception@v8@@QAEAAV01@$$QAV01@@Z 10001390 f i odbc.obj
 0001:00000390       ??4Context@v8@@QAEAAV01@ABV01@@Z 10001390 f i odbc.obj
 0001:00000390       ??4Float64Array@v8@@QAEAAV01@ABV01@@Z 10001390 f i odbc.obj
 0001:00000390       ??4Uint32@v8@@QAEAAV01@$$QAV01@@Z 10001390 f i odbc.obj
 0001:00000390       ??4AccessorSignature@v8@@QAEAAV01@ABV01@@Z 10001390 f i odbc.obj
 0001:00000390       ??4ArrayBuffer@v8@@QAEAAV01@ABV01@@Z 10001390 f i odbc.obj
 0001:00000390       ??4StackTrace@v8@@QAEAAV01@$$QAV01@@Z 10001390 f i odbc.obj
 0001:00000390       ??4RegExp@v8@@QAEAAV01@ABV01@@Z 10001390 f i odbc.obj
 0001:00000390       ??4StringObject@v8@@QAEAAV01@ABV01@@Z 10001390 f i odbc.obj
 0001:00000390       ??4ObjectTemplate@v8@@QAEAAV01@ABV01@@Z 10001390 f i odbc.obj
 0001:00000390       ??4Value@v8@@QAEAAV01@ABV01@@Z 10001390 f i odbc.obj
 0001:00000390       ??4Name@v8@@QAEAAV01@$$QAV01@@Z 10001390 f i odbc.obj
 0001:00000390       ??4TypeSwitch@v8@@QAEAAV01@$$QAV01@@Z 10001390 f i odbc.obj
 0001:00000390       ??4Float64Array@v8@@QAEAAV01@$$QAV01@@Z 10001390 f i odbc.obj
 0001:00000390       ??4UnboundScript@v8@@QAEAAV01@$$QAV01@@Z 10001390 f i odbc.obj
 0001:00000390       ??4NativeWeakMap@v8@@QAEAAV01@$$QAV01@@Z 10001390 f i odbc.obj
 0001:00000390       ??4SymbolObject@v8@@QAEAAV01@$$QAV01@@Z 10001390 f i odbc.obj
 0001:00000390       ??4TypeSwitch@v8@@QAEAAV01@ABV01@@Z 10001390 f i odbc.obj
 0001:00000390       ??4Boolean@v8@@QAEAAV01@ABV01@@Z 10001390 f i odbc.obj
 0001:00000390       ??4Number@v8@@QAEAAV01@$$QAV01@@Z 10001390 f i odbc.obj
 0001:00000390       ??4Script@v8@@QAEAAV01@ABV01@@Z 10001390 f i odbc.obj
 0001:00000390       ??4ScriptCompiler@v8@@QAEAAV01@ABV01@@Z 10001390 f i odbc.obj
 0001:00000390       ??4Map@v8@@QAEAAV01@$$QAV01@@Z 10001390 f i odbc.obj
 0001:00000390       ??4Uint16Array@v8@@QAEAAV01@ABV01@@Z 10001390 f i odbc.obj
 0001:00000390       ??4Uint8Array@v8@@QAEAAV01@ABV01@@Z 10001390 f i odbc.obj
 0001:00000390       ??4AccessorSignature@v8@@QAEAAV01@$$QAV01@@Z 10001390 f i odbc.obj
 0001:00000390       ??4Date@v8@@QAEAAV01@$$QAV01@@Z 10001390 f i odbc.obj
 0001:00000390       ??4Int32Array@v8@@QAEAAV01@$$QAV01@@Z 10001390 f i odbc.obj
 0001:00000390       ??4Primitive@v8@@QAEAAV01@$$QAV01@@Z 10001390 f i odbc.obj
 0001:00000390       ??4Int8Array@v8@@QAEAAV01@$$QAV01@@Z 10001390 f i odbc.obj
 0001:00000390       ??4Integer@v8@@QAEAAV01@$$QAV01@@Z 10001390 f i odbc.obj
 0001:00000390       ??4Signature@v8@@QAEAAV01@$$QAV01@@Z 10001390 f i odbc.obj
 0001:00000390       ??4ScriptCompiler@v8@@QAEAAV01@$$QAV01@@Z 10001390 f i odbc.obj
 0001:00000390       ??4Symbol@v8@@QAEAAV01@ABV01@@Z 10001390 f i odbc.obj
 0001:00000390       ??4ExternalResourceVisitor@v8@@QAEAAV01@ABV01@@Z 10001390 f i odbc.obj
 0001:00000390       ??4JSON@v8@@QAEAAV01@$$QAV01@@Z 10001390 f i odbc.obj
 0001:00000390       ??4Int32Array@v8@@QAEAAV01@ABV01@@Z 10001390 f i odbc.obj
 0001:00000390       ??4ArrayBufferView@v8@@QAEAAV01@ABV01@@Z 10001390 f i odbc.obj
 0001:00000390       ??4Float32Array@v8@@QAEAAV01@$$QAV01@@Z 10001390 f i odbc.obj
 0001:00000390       ??4Number@v8@@QAEAAV01@ABV01@@Z 10001390 f i odbc.obj
 0001:00000390       ??4Uint32Array@v8@@QAEAAV01@ABV01@@Z 10001390 f i odbc.obj
 0001:00000390       ??4TypedArray@v8@@QAEAAV01@ABV01@@Z 10001390 f i odbc.obj
 0001:000003a0       ??0CachedData@ScriptCompiler@v8@@QAE@XZ 100013a0 f i odbc.obj
 0001:000003c0       ??1ExternalSourceStream@ScriptCompiler@v8@@UAE@XZ 100013c0 f i odbc.obj
 0001:000003d0       ??0ExternalSourceStream@ScriptCompiler@v8@@QAE@XZ 100013d0 f i odbc.obj
 0001:000003e0       ??0ExternalSourceStream@ScriptCompiler@v8@@QAE@ABV012@@Z 100013e0 f i odbc.obj
 0001:000003f0       ??_EExternalSourceStream@ScriptCompiler@v8@@UAEPAXI@Z 100013f0 f i odbc.obj
 0001:00000460       ??1ExternalOneByteStringResource@String@v8@@UAE@XZ 10001460 f i odbc.obj
 0001:00000460       ??1ExternalOneByteStringResourceImpl@v8@@UAE@XZ 10001460 f i odbc.obj
 0001:00000460       ??1ExternalStringResource@String@v8@@UAE@XZ 10001460 f i odbc.obj
 0001:00000460       ??1ExternalStringResourceBase@String@v8@@UAE@XZ 10001460 f i odbc.obj
 0001:00000470       ??0ExternalStringResourceBase@String@v8@@IAE@XZ 10001470 f i odbc.obj
 0001:00000480       ?Dispose@ExternalStringResourceBase@String@v8@@MAEXXZ 10001480 f i odbc.obj
 0001:00000490       ??0ExternalStringResource@String@v8@@IAE@XZ 10001490 f i odbc.obj
 0001:00000490       ??0ExternalOneByteStringResource@String@v8@@IAE@XZ 10001490 f i odbc.obj
 0001:000004a0       ?length@Value@String@v8@@QBEHXZ 100014a0 f i odbc.obj
 0001:000004a0       ?total_heap_size_executable@HeapStatistics@v8@@QAEIXZ 100014a0 f i odbc.obj
 0001:000004a0       ?name@Extension@v8@@QBEPBDXZ 100014a0 f i odbc.obj
 0001:000004a0       ?length@Utf8Value@String@v8@@QBEHXZ 100014a0 f i odbc.obj
 0001:000004a0       ?space_size@HeapSpaceStatistics@v8@@QAEIXZ 100014a0 f i odbc.obj
 0001:000004a0       ?data@ExternalOneByteStringResourceImpl@v8@@UBEPBDXZ 100014a0 f i odbc.obj
 0001:000004a0       ?ByteLength@Contents@ArrayBuffer@v8@@QBEIXZ 100014a0 f i odbc.obj
 0001:000004a0       ?max_old_space_size@ResourceConstraints@v8@@QBEHXZ 100014a0 f i odbc.obj
 0001:000004a0       ?ByteLength@Contents@SharedArrayBuffer@v8@@QBEIXZ 100014a0 f i odbc.obj
 0001:000004a0       ?begin@ExtensionConfiguration@v8@@QBEPAPBDXZ 100014a0 f i odbc.obj
 0001:000004a0       ?object_sub_type@HeapObjectStatistics@v8@@QAEPBDXZ 100014a0 f i odbc.obj
 0001:000004b0       ?InternalFieldCount@Object@v8@@SAHABV?$PersistentBase@VObject@v8@@@2@@Z 100014b0 f i odbc.obj
 0001:000004c0       ?GetAlignedPointerFromInternalField@Object@v8@@SAPAXABV?$PersistentBase@VObject@v8@@@2@H@Z 100014c0 f i odbc.obj
 0001:000004f0       ?NewInstance@Function@v8@@QBE?AV?$MaybeLocal@VObject@v8@@@2@V?$Local@VContext@v8@@@2@@Z 100014f0 f i odbc.obj
 0001:00000510       ??1Allocator@ArrayBuffer@v8@@UAE@XZ 10001510 f i odbc.obj
 0001:00000520       ??0Contents@ArrayBuffer@v8@@QAE@XZ 10001520 f i odbc.obj
 0001:00000520       ??0Contents@SharedArrayBuffer@v8@@QAE@XZ 10001520 f i odbc.obj
 0001:00000520       ??0ExtensionConfiguration@v8@@QAE@XZ 10001520 f i odbc.obj
 0001:00000530       ?SetIndexedPropertyHandler@ObjectTemplate@v8@@QAEXP6AXIABV?$PropertyCallbackInfo@VValue@v8@@@2@@ZP6AXIV?$Local@VValue@v8@@@2@0@ZP6AXIABV?$PropertyCallbackInfo@VInteger@v8@@@2@@ZP6AXIABV?$PropertyCallbackInfo@VBoolean@v8@@@2@@ZP6AXABV?$PropertyCallbackInfo@VArray@v8@@@2@@Z2@Z 10001530 f i odbc.obj
 0001:00000580       ??0ExternalOneByteStringResourceImpl@v8@@QAE@XZ 10001580 f i odbc.obj
 0001:000005a0       ??0ExternalOneByteStringResourceImpl@v8@@QAE@PBDI@Z 100015a0 f i odbc.obj
 0001:000005c0       ?object_count@HeapObjectStatistics@v8@@QAEIXZ 100015c0 f i odbc.obj
 0001:000005c0       ?length@ExternalOneByteStringResourceImpl@v8@@UBEIXZ 100015c0 f i odbc.obj
 0001:000005c0       ?space_used_size@HeapSpaceStatistics@v8@@QAEIXZ 100015c0 f i odbc.obj
 0001:000005c0       ?total_physical_size@HeapStatistics@v8@@QAEIXZ 100015c0 f i odbc.obj
 0001:000005c0       ?max_executable_size@ResourceConstraints@v8@@QBEHXZ 100015c0 f i odbc.obj
 0001:000005c0       ?source_length@Extension@v8@@QBEIXZ 100015c0 f i odbc.obj
 0001:000005d0       ??1Extension@v8@@UAE@XZ    100015d0 f i odbc.obj
 0001:000005e0       ?GetNativeFunctionTemplate@Extension@v8@@UAE?AV?$Local@VFunctionTemplate@v8@@@2@PAVIsolate@2@V?$Local@VString@v8@@@2@@Z 100015e0 f i odbc.obj
 0001:000005f0       ?source@Extension@v8@@QBEPBVExternalOneByteStringResource@String@2@XZ 100015f0 f i odbc.obj
 0001:00000600       ?dependency_count@Extension@v8@@QAEHXZ 10001600 f i odbc.obj
 0001:00000610       ?dependencies@Extension@v8@@QAEPAPBDXZ 10001610 f i odbc.obj
 0001:00000620       ?set_auto_enable@Extension@v8@@QAEX_N@Z 10001620 f i odbc.obj
 0001:00000630       ?auto_enable@Extension@v8@@QAE_NXZ 10001630 f i odbc.obj
 0001:00000640       ?set_max_semi_space_size@ResourceConstraints@v8@@QAEXH@Z 10001640 f i odbc.obj
 0001:00000650       ?set_max_old_space_size@ResourceConstraints@v8@@QAEXH@Z 10001650 f i odbc.obj
 0001:00000660       ?set_max_executable_size@ResourceConstraints@v8@@QAEXH@Z 10001660 f i odbc.obj
 0001:00000670       ?space_available_size@HeapSpaceStatistics@v8@@QAEIXZ 10001670 f i odbc.obj
 0001:00000670       ?object_size@HeapObjectStatistics@v8@@QAEIXZ 10001670 f i odbc.obj
 0001:00000670       ?stack_limit@ResourceConstraints@v8@@QBEPAIXZ 10001670 f i odbc.obj
 0001:00000670       ?total_available_size@HeapStatistics@v8@@QAEIXZ 10001670 f i odbc.obj
 0001:00000680       ?set_stack_limit@ResourceConstraints@v8@@QAEXPAI@Z 10001680 f i odbc.obj
 0001:00000690       ?code_range_size@ResourceConstraints@v8@@QBEIXZ 10001690 f i odbc.obj
 0001:00000690       ?used_heap_size@HeapStatistics@v8@@QAEIXZ 10001690 f i odbc.obj
 0001:00000690       ?physical_space_size@HeapSpaceStatistics@v8@@QAEIXZ 10001690 f i odbc.obj
 0001:000006a0       ?set_code_range_size@ResourceConstraints@v8@@QAEXI@Z 100016a0 f i odbc.obj
 0001:000006b0       ?heap_size_limit@HeapStatistics@v8@@QAEIXZ 100016b0 f i odbc.obj
 0001:000006c0       ??1ExternalResourceVisitor@v8@@UAE@XZ 100016c0 f i odbc.obj
 0001:000006d0       ?VisitExternalString@ExternalResourceVisitor@v8@@UAEXV?$Local@VString@v8@@@2@@Z 100016d0 f i odbc.obj
 0001:000006e0       ??1PersistentHandleVisitor@v8@@UAE@XZ 100016e0 f i odbc.obj
 0001:000006f0       ?VisitPersistentHandle@PersistentHandleVisitor@v8@@UAEXPAV?$Persistent@VValue@v8@@V?$NonCopyablePersistentTraits@VValue@v8@@@2@@2@G@Z 100016f0 f i odbc.obj
 0001:00000700       ??0Scope@Isolate@v8@@QAE@PAV12@@Z 10001700 f i odbc.obj
 0001:00000720       ??1Scope@Isolate@v8@@QAE@XZ 10001720 f i odbc.obj
 0001:00000730       ?JSStackComparableAddress@TryCatch@v8@@SAPAXPAV12@@Z 10001730 f i odbc.obj
 0001:00000740       ??0ExtensionConfiguration@v8@@QAE@HQAPBD@Z 10001740 f i odbc.obj
 0001:00000760       ?end@ExtensionConfiguration@v8@@QBEPAPBDXZ 10001760 f i odbc.obj
 0001:00000770       ??0Unlocker@v8@@QAE@PAVIsolate@1@@Z 10001770 f i odbc.obj
 0001:00000790       ??0Locker@v8@@QAE@PAVIsolate@1@@Z 10001790 f i odbc.obj
 0001:000007b0       ?New@Boolean@v8@@SA?AV?$Local@VBoolean@v8@@@2@PAVIsolate@2@_N@Z 100017b0 f i odbc.obj
 0001:000007d0       ?Set@Template@v8@@QAEXPAVIsolate@2@PBDV?$Local@VData@v8@@@2@@Z 100017d0 f i odbc.obj
 0001:00000820       ?GetInternalField@Object@v8@@QAE?AV?$Local@VValue@v8@@@2@H@Z 10001820 f i odbc.obj
 0001:00000860       ?GetAlignedPointerFromInternalField@Object@v8@@QAEPAXH@Z 10001860 f i odbc.obj
 0001:00000880       ?Cast@BooleanObject@v8@@SAPAV12@PAVValue@2@@Z 10001880 f i odbc.obj
 0001:00000880       ?Cast@Resolver@Promise@v8@@SAPAV123@PAVValue@3@@Z 10001880 f i odbc.obj
 0001:00000880       ?Cast@Int32Array@v8@@SAPAV12@PAVValue@2@@Z 10001880 f i odbc.obj
 0001:00000880       ?Cast@ArrayBuffer@v8@@SAPAV12@PAVValue@2@@Z 10001880 f i odbc.obj
 0001:00000880       ?Cast@Date@v8@@SAPAV12@PAVValue@2@@Z 10001880 f i odbc.obj
 0001:00000880       ?Cast@Integer@v8@@SAPAV12@PAVValue@2@@Z 10001880 f i odbc.obj
 0001:00000880       ?Cast@Symbol@v8@@SAPAV12@PAVValue@2@@Z 10001880 f i odbc.obj
 0001:00000880       ?Cast@Uint32Array@v8@@SAPAV12@PAVValue@2@@Z 10001880 f i odbc.obj
 0001:00000880       ?Cast@Float32Array@v8@@SAPAV12@PAVValue@2@@Z 10001880 f i odbc.obj
 0001:00000880       ?Cast@Object@v8@@SAPAV12@PAVValue@2@@Z 10001880 f i odbc.obj
 0001:00000880       ?Cast@SymbolObject@v8@@SAPAV12@PAVValue@2@@Z 10001880 f i odbc.obj
 0001:00000880       ?Cast@Int8Array@v8@@SAPAV12@PAVValue@2@@Z 10001880 f i odbc.obj
 0001:00000880       ?Cast@RegExp@v8@@SAPAV12@PAVValue@2@@Z 10001880 f i odbc.obj
 0001:00000880       ?Cast@Array@v8@@SAPAV12@PAVValue@2@@Z 10001880 f i odbc.obj
 0001:00000880       ?Cast@Boolean@v8@@SAPAV12@PAVValue@2@@Z 10001880 f i odbc.obj
 0001:00000880       ?Cast@ArrayBufferView@v8@@SAPAV12@PAVValue@2@@Z 10001880 f i odbc.obj
 0001:00000880       ?Cast@Uint8ClampedArray@v8@@SAPAV12@PAVValue@2@@Z 10001880 f i odbc.obj
 0001:00000880       ?Cast@Int16Array@v8@@SAPAV12@PAVValue@2@@Z 10001880 f i odbc.obj
 0001:00000880       ?Cast@StringObject@v8@@SAPAV12@PAVValue@2@@Z 10001880 f i odbc.obj
 0001:00000880       ?Cast@String@v8@@SAPAV12@PAVValue@2@@Z 10001880 f i odbc.obj
 0001:00000880       ?Cast@Float64Array@v8@@SAPAV12@PAVValue@2@@Z 10001880 f i odbc.obj
 0001:00000880       ?Cast@Uint16Array@v8@@SAPAV12@PAVValue@2@@Z 10001880 f i odbc.obj
 0001:00000880       ?Cast@TypedArray@v8@@SAPAV12@PAVValue@2@@Z 10001880 f i odbc.obj
 0001:00000880       ?Cast@Int32@v8@@SAPAV12@PAVValue@2@@Z 10001880 f i odbc.obj
 0001:00000880       ?Cast@DataView@v8@@SAPAV12@PAVValue@2@@Z 10001880 f i odbc.obj
 0001:00000880       ?Cast@Uint8Array@v8@@SAPAV12@PAVValue@2@@Z 10001880 f i odbc.obj
 0001:00000880       ?Cast@SharedArrayBuffer@v8@@SAPAV12@PAVValue@2@@Z 10001880 f i odbc.obj
 0001:00000880       ?Cast@Number@v8@@SAPAV12@PAVValue@2@@Z 10001880 f i odbc.obj
 0001:00000880       ?Cast@Uint32@v8@@SAPAV12@PAVValue@2@@Z 10001880 f i odbc.obj
 0001:00000880       ?Cast@External@v8@@SAPAV12@PAVValue@2@@Z 10001880 f i odbc.obj
 0001:00000880       ?Cast@Promise@v8@@SAPAV12@PAVValue@2@@Z 10001880 f i odbc.obj
 0001:00000880       ?Cast@Set@v8@@SAPAV12@PAVValue@2@@Z 10001880 f i odbc.obj
 0001:00000880       ?Cast@Map@v8@@SAPAV12@PAVValue@2@@Z 10001880 f i odbc.obj
 0001:00000880       ?Cast@Function@v8@@SAPAV12@PAVValue@2@@Z 10001880 f i odbc.obj
 0001:00000880       ?Cast@NumberObject@v8@@SAPAV12@PAVValue@2@@Z 10001880 f i odbc.obj
 0001:00000880       ?Cast@Name@v8@@SAPAV12@PAVValue@2@@Z 10001880 f i odbc.obj
 0001:00000890       ?Empty@String@v8@@SA?AV?$Local@VString@v8@@@2@PAVIsolate@2@@Z 10001890 f i odbc.obj
 0001:000008a0       ?GetExternalStringResource@String@v8@@QBEPAVExternalStringResource@12@XZ 100018a0 f i odbc.obj
 0001:000008c0       ?GetExternalStringResourceBase@String@v8@@QBEPAVExternalStringResourceBase@12@PAW4Encoding@12@@Z 100018c0 f i odbc.obj
 0001:000008f0       ?IsUndefined@Value@v8@@QBE_NXZ 100018f0 f i odbc.obj
 0001:00000920       ?QuickIsUndefined@Value@v8@@ABE_NXZ 10001920 f i odbc.obj
 0001:00000950       ?IsNull@Value@v8@@QBE_NXZ  10001950 f i odbc.obj
 0001:00000980       ?QuickIsNull@Value@v8@@ABE_NXZ 10001980 f i odbc.obj
 0001:000009b0       ?IsString@Value@v8@@QBE_NXZ 100019b0 f i odbc.obj
 0001:000009e0       ?QuickIsString@Value@v8@@ABE_NXZ 100019e0 f i odbc.obj
 0001:00000a10       ?ToBoolean@Value@v8@@QBE?AV?$Local@VBoolean@v8@@@2@XZ 10001a10 f i odbc.obj
 0001:00000a50       ?ToNumber@Value@v8@@QBE?AV?$Local@VNumber@v8@@@2@XZ 10001a50 f i odbc.obj
 0001:00000a90       ?ToString@Value@v8@@QBE?AV?$Local@VString@v8@@@2@XZ 10001a90 f i odbc.obj
 0001:00000ad0       ?ToDetailString@Value@v8@@QBE?AV?$Local@VString@v8@@@2@XZ 10001ad0 f i odbc.obj
 0001:00000b10       ?ToObject@Value@v8@@QBE?AV?$Local@VObject@v8@@@2@XZ 10001b10 f i odbc.obj
 0001:00000b50       ?ToInteger@Value@v8@@QBE?AV?$Local@VInteger@v8@@@2@XZ 10001b50 f i odbc.obj
 0001:00000b90       ?ToUint32@Value@v8@@QBE?AV?$Local@VUint32@v8@@@2@XZ 10001b90 f i odbc.obj
 0001:00000bd0       ?ToInt32@Value@v8@@QBE?AV?$Local@VInt32@v8@@@2@XZ 10001bd0 f i odbc.obj
 0001:00000c10       ?SetData@Isolate@v8@@QAEXIPAX@Z 10001c10 f i odbc.obj
 0001:00000c20       ?GetData@Isolate@v8@@QAEPAXI@Z 10001c20 f i odbc.obj
 0001:00000c30       ?GetNumberOfDataSlots@Isolate@v8@@SAIXZ 10001c30 f i odbc.obj
 0001:00000c40       ?AdjustAmountOfExternalAllocatedMemory@Isolate@v8@@QAE_J_J@Z 10001c40 f i odbc.obj
 0001:00000ca0       ?GetEmbedderData@Context@v8@@QAE?AV?$Local@VValue@v8@@@2@H@Z 10001ca0 f i odbc.obj
 0001:00000cd0       ?GetAlignedPointerFromEmbedderData@Context@v8@@QAEPAXH@Z 10001cd0 f i odbc.obj
 0001:00000ce0       ?SetAllowCodeGenerationFromStringsCallback@V8@v8@@SAXP6A_NV?$Local@VContext@v8@@@2@@Z@Z 10001ce0 f i odbc.obj
 0001:00000d00       ?IsDead@V8@v8@@SA_NXZ      10001d00 f i odbc.obj
 0001:00000d10       ?AddMessageListener@V8@v8@@SA_NP6AXV?$Local@VMessage@v8@@@2@V?$Local@VValue@v8@@@2@@Z1@Z 10001d10 f i odbc.obj
 0001:00000d30       ?RemoveMessageListeners@V8@v8@@SAXP6AXV?$Local@VMessage@v8@@@2@V?$Local@VValue@v8@@@2@@Z@Z 10001d30 f i odbc.obj
 0001:00000d50       ?SetFailedAccessCheckCallbackFunction@V8@v8@@SAXP6AXV?$Local@VObject@v8@@@2@W4AccessType@2@V?$Local@VValue@v8@@@2@@Z@Z 10001d50 f i odbc.obj
 0001:00000d70       ?SetCaptureStackTraceForUncaughtExceptions@V8@v8@@SAX_NHW4StackTraceOptions@StackTrace@2@@Z 10001d70 f i odbc.obj
 0001:00000d90       ?SetFatalErrorHandler@V8@v8@@SAXP6AXPBD0@Z@Z 10001d90 f i odbc.obj
 0001:00000db0       ?RemoveGCPrologueCallback@V8@v8@@SAXP6AXW4GCType@2@W4GCCallbackFlags@2@@Z@Z 10001db0 f i odbc.obj
 0001:00000dd0       ?RemoveGCEpilogueCallback@V8@v8@@SAXP6AXW4GCType@2@W4GCCallbackFlags@2@@Z@Z 10001dd0 f i odbc.obj
 0001:00000df0       ?AddMemoryAllocationCallback@V8@v8@@SAXP6AXW4ObjectSpace@2@W4AllocationAction@2@H@Z01@Z 10001df0 f i odbc.obj
 0001:00000e10       ?RemoveMemoryAllocationCallback@V8@v8@@SAXP6AXW4ObjectSpace@2@W4AllocationAction@2@H@Z@Z 10001e10 f i odbc.obj
 0001:00000e30       ?TerminateExecution@V8@v8@@SAXPAVIsolate@2@@Z 10001e30 f i odbc.obj
 0001:00000e40       ?IsExecutionTerminating@V8@v8@@SA_NPAVIsolate@2@@Z 10001e40 f i odbc.obj
 0001:00000e60       ?CancelTerminateExecution@V8@v8@@SAXPAVIsolate@2@@Z 10001e60 f i odbc.obj
 0001:00000e70       ?VisitExternalResources@V8@v8@@SAXPAVExternalResourceVisitor@2@@Z 10001e70 f i odbc.obj
 0001:00000e90       ?VisitHandlesWithClassIds@V8@v8@@SAXPAVPersistentHandleVisitor@2@@Z 10001e90 f i odbc.obj
 0001:00000eb0       ?VisitHandlesWithClassIds@V8@v8@@SAXPAVIsolate@2@PAVPersistentHandleVisitor@2@@Z 10001eb0 f i odbc.obj
 0001:00000ec0       ?VisitHandlesForPartialDependence@V8@v8@@SAXPAVIsolate@2@PAVPersistentHandleVisitor@2@@Z 10001ec0 f i odbc.obj
 0001:00000ed0       ??_EExternalStringResourceBase@String@v8@@UAEPAXI@Z 10001ed0 f i odbc.obj
 0001:00000ed0       ??_EExternalOneByteStringResource@String@v8@@UAEPAXI@Z 10001ed0 f i odbc.obj
 0001:00000ed0       ??_EExternalStringResource@String@v8@@UAEPAXI@Z 10001ed0 f i odbc.obj
 0001:00000f40       ??0Allocator@ArrayBuffer@v8@@QAE@XZ 10001f40 f i odbc.obj
 0001:00000f50       ??0Allocator@ArrayBuffer@v8@@QAE@ABV012@@Z 10001f50 f i odbc.obj
 0001:00000f60       ??_EAllocator@ArrayBuffer@v8@@UAEPAXI@Z 10001f60 f i odbc.obj
 0001:00000fd0       ??4StartupData@v8@@QAEAAV01@ABV01@@Z 10001fd0 f i odbc.obj
 0001:00000fd0       ??4Contents@ArrayBuffer@v8@@QAEAAV012@ABV012@@Z 10001fd0 f i odbc.obj
 0001:00000fd0       ??4Contents@SharedArrayBuffer@v8@@QAEAAV012@ABV012@@Z 10001fd0 f i odbc.obj
 0001:00000fd0       ??4StartupData@v8@@QAEAAV01@$$QAV01@@Z 10001fd0 f i odbc.obj
 0001:00000fd0       ??4Contents@SharedArrayBuffer@v8@@QAEAAV012@$$QAV012@@Z 10001fd0 f i odbc.obj
 0001:00000fd0       ??4Contents@ArrayBuffer@v8@@QAEAAV012@$$QAV012@@Z 10001fd0 f i odbc.obj
 0001:00000ff0       ??_EExternalOneByteStringResourceImpl@v8@@UAEPAXI@Z 10001ff0 f i odbc.obj
 0001:00001060       ??_EExtension@v8@@UAEPAXI@Z 10002060 f i odbc.obj
 0001:000010e0       ??4ResourceConstraints@v8@@QAEAAV01@ABV01@@Z 100020e0 f i odbc.obj
 0001:000010e0       ??4HeapSpaceStatistics@v8@@QAEAAV01@ABV01@@Z 100020e0 f i odbc.obj
 0001:00001100       ??4ResourceConstraints@v8@@QAEAAV01@$$QAV01@@Z 10002100 f i odbc.obj
 0001:00001100       ??4HeapSpaceStatistics@v8@@QAEAAV01@$$QAV01@@Z 10002100 f i odbc.obj
 0001:00001130       ??4HeapStatistics@v8@@QAEAAV01@ABV01@@Z 10002130 f i odbc.obj
 0001:00001150       ??4HeapStatistics@v8@@QAEAAV01@$$QAV01@@Z 10002150 f i odbc.obj
 0001:00001180       ??4HeapObjectStatistics@v8@@QAEAAV01@ABV01@@Z 10002180 f i odbc.obj
 0001:00001190       ??4HeapObjectStatistics@v8@@QAEAAV01@$$QAV01@@Z 10002190 f i odbc.obj
 0001:000011b0       ??0ExternalResourceVisitor@v8@@QAE@XZ 100021b0 f i odbc.obj
 0001:000011c0       ??0ExternalResourceVisitor@v8@@QAE@ABV01@@Z 100021c0 f i odbc.obj
 0001:000011d0       ??_EExternalResourceVisitor@v8@@UAEPAXI@Z 100021d0 f i odbc.obj
 0001:00001240       ??0PersistentHandleVisitor@v8@@QAE@XZ 10002240 f i odbc.obj
 0001:00001250       ??0PersistentHandleVisitor@v8@@QAE@ABV01@@Z 10002250 f i odbc.obj
 0001:00001260       ??_EPersistentHandleVisitor@v8@@UAEPAXI@Z 10002260 f i odbc.obj
 0001:000012d0       ??4Unlocker@v8@@QAEAAV01@ABV01@@Z 100022d0 f i odbc.obj
 0001:00001380       ?New@?$Factory@VFunctionTemplate@v8@@@imp@Nan@@SA?AV?$Local@VFunctionTemplate@v8@@@v8@@P6AXABV?$FunctionCallbackInfo@VValue@v8@@@3@@ZV?$Local@VValue@v8@@@5@V?$Local@VSignature@v8@@@5@@Z 10002380 f i odbc.obj
 0001:000014a0       ?New@Nan@@YA?AV?$Local@VInt32@v8@@@v8@@H@Z 100024a0 f i odbc.obj
 0001:00001500       ??0Callback@Nan@@QAE@ABV?$Local@VFunction@v8@@@v8@@@Z 10002500 f i odbc.obj
 0001:000015d0       ?Wrap@ObjectWrap@Nan@@IAEXV?$Local@VObject@v8@@@v8@@@Z 100025d0 f i odbc.obj
 0001:00001680       ?Ref@ObjectWrap@Nan@@MAEXXZ 10002680 f i odbc.obj
 0001:000016b0       ?Unref@ObjectWrap@Nan@@MAEXXZ 100026b0 f i odbc.obj
 0001:00001740       ?WeakCallback@ObjectWrap@Nan@@CAXABV?$WeakCallbackInfo@VObjectWrap@Nan@@@v8@@@Z 10002740 f i odbc.obj
 0001:000017b0       ??_EObjectWrap@Nan@@UAEPAXI@Z 100027b0 f i * CIL library *:* CIL module *
 0001:000017b0       ??_GObjectWrap@Nan@@UAEPAXI@Z 100027b0 f i odbc.obj
 0001:00001830       ??_GODBC@@MAEPAXI@Z        10002830 f i odbc.obj
 0001:00001830       ??_EODBC@@MAEPAXI@Z        10002830 f i * CIL library *:* CIL module *
 0001:00001850       ?Init@ODBC@@SAXV?$Local@VObject@v8@@@v8@@@Z 10002850 f   odbc.obj
 0001:00001de0       ??1ODBC@@MAE@XZ            10002de0 f   odbc.obj
 0001:00001e80       ?New@ODBC@@SAXABV?$FunctionCallbackInfo@VValue@v8@@@Nan@@@Z 10002e80 f   odbc.obj
 0001:00001fb0       ?CreateConnection@ODBC@@SAXABV?$FunctionCallbackInfo@VValue@v8@@@Nan@@@Z 10002fb0 f   odbc.obj
 0001:00002110       ?UV_CreateConnection@ODBC@@KAXPAUuv_work_s@@@Z 10003110 f   odbc.obj
 0001:00002150       ?UV_AfterCreateConnection@ODBC@@KAXPAUuv_work_s@@H@Z 10003150 f   odbc.obj
 0001:000023e0       ?CreateConnectionSync@ODBC@@SAXABV?$FunctionCallbackInfo@VValue@v8@@@Nan@@@Z 100033e0 f   odbc.obj
 0001:00002530       ?GetColumns@ODBC@@SAPAUColumn@@PAXPAF@Z 10003530 f   odbc.obj
 0001:00002600       ?FreeColumns@ODBC@@SAXPAUColumn@@PAF@Z 10003600 f   odbc.obj
 0001:00002640       ?GetColumnValue@ODBC@@SA?AV?$Local@VValue@v8@@@v8@@PAXUColumn@@PAGH@Z 10003640 f   odbc.obj
 0001:00002a20       ?GetRecordTuple@ODBC@@SA?AV?$Local@VValue@v8@@@v8@@PAXPAUColumn@@PAFPAGH@Z 10003a20 f   odbc.obj
 0001:00002b10       ?GetRecordArray@ODBC@@SA?AV?$Local@VValue@v8@@@v8@@PAXPAUColumn@@PAFPAGH@Z 10003b10 f   odbc.obj
 0001:00002c20       ?GetParametersFromArray@ODBC@@SAPAUParameter@@V?$Local@VArray@v8@@@v8@@PAH@Z 10003c20 f   odbc.obj
 0001:00002e30       ?CallbackSQLError@ODBC@@SA?AV?$Local@VValue@v8@@@v8@@FPAXPADPAVCallback@Nan@@@Z 10003e30 f   odbc.obj
 0001:00002f20       ?GetSQLError@ODBC@@SA?AV?$Local@VObject@v8@@@v8@@FPAX@Z 10003f20 f   odbc.obj
 0001:00002f80       ?GetSQLError@ODBC@@SA?AV?$Local@VObject@v8@@@v8@@FPAXPAD@Z 10003f80 f   odbc.obj
 0001:000034a0       _init                      100044a0 f   odbc.obj
 0001:000034e0       ??$New@VInteger@v8@@H@Nan@@YA?AV?$Local@VInteger@v8@@@v8@@H@Z 100044e0 f i odbc.obj
 0001:00003680       ?SetAccessor@Nan@@YAXV?$Local@VObjectTemplate@v8@@@v8@@V?$Local@VString@v8@@@3@P6AX1ABV?$PropertyCallbackInfo@VValue@v8@@@1@@ZP6AX1V?$Local@VValue@v8@@@3@ABV?$PropertyCallbackInfo@X@1@@Z4W4AccessControl@3@W4PropertyAttribute@3@V?$Local@VAccessorSignature@v8@@@3@@Z 10004680 f i odbc_connection.obj
 0001:000037a0       ??_EODBCConnection@@MAEPAXI@Z 100047a0 f i * CIL library *:* CIL module *
 0001:000037a0       ??_GODBCConnection@@MAEPAXI@Z 100047a0 f i odbc_connection.obj
 0001:000037d0       ?Init@ODBCConnection@@SAXV?$Local@VObject@v8@@@v8@@@Z 100047d0 f   odbc_connection.obj
 0001:00004600       ??1ODBCConnection@@MAE@XZ  10005600 f   odbc_connection.obj
 0001:000046b0       ?New@ODBCConnection@@SAXABV?$FunctionCallbackInfo@VValue@v8@@@Nan@@@Z 100056b0 f   odbc_connection.obj
 0001:00004880       ?ConnectedGetter@ODBCConnection@@SAXV?$Local@VString@v8@@@v8@@ABV?$PropertyCallbackInfo@VValue@v8@@@Nan@@@Z 10005880 f   odbc_connection.obj
 0001:00004940       ?ConnectTimeoutGetter@ODBCConnection@@SAXV?$Local@VString@v8@@@v8@@ABV?$PropertyCallbackInfo@VValue@v8@@@Nan@@@Z 10005940 f   odbc_connection.obj
 0001:00004a20       ?ConnectTimeoutSetter@ODBCConnection@@SAXV?$Local@VString@v8@@@v8@@V?$Local@VValue@v8@@@3@ABV?$PropertyCallbackInfo@X@Nan@@@Z 10005a20 f   odbc_connection.obj
 0001:00004ac0       ?LoginTimeoutGetter@ODBCConnection@@SAXV?$Local@VString@v8@@@v8@@ABV?$PropertyCallbackInfo@VValue@v8@@@Nan@@@Z 10005ac0 f   odbc_connection.obj
 0001:00004ba0       ?LoginTimeoutSetter@ODBCConnection@@SAXV?$Local@VString@v8@@@v8@@V?$Local@VValue@v8@@@3@ABV?$PropertyCallbackInfo@X@Nan@@@Z 10005ba0 f   odbc_connection.obj
 0001:00004c40       ?Open@ODBCConnection@@SAXABV?$FunctionCallbackInfo@VValue@v8@@@Nan@@@Z 10005c40 f   odbc_connection.obj
 0001:00004e70       ?UV_Open@ODBCConnection@@KAXPAUuv_work_s@@@Z 10005e70 f   odbc_connection.obj
 0001:00004f30       ?UV_AfterOpen@ODBCConnection@@KAXPAUuv_work_s@@H@Z 10005f30 f   odbc_connection.obj
 0001:000050f0       ?OpenSync@ODBCConnection@@SAXABV?$FunctionCallbackInfo@VValue@v8@@@Nan@@@Z 100060f0 f   odbc_connection.obj
 0001:00005380       ?Close@ODBCConnection@@SAXABV?$FunctionCallbackInfo@VValue@v8@@@Nan@@@Z 10006380 f   odbc_connection.obj
 0001:00005520       ?UV_Close@ODBCConnection@@KAXPAUuv_work_s@@@Z 10006520 f   odbc_connection.obj
 0001:00005580       ?UV_AfterClose@ODBCConnection@@KAXPAUuv_work_s@@H@Z 10006580 f   odbc_connection.obj
 0001:00005730       ?CloseSync@ODBCConnection@@SAXABV?$FunctionCallbackInfo@VValue@v8@@@Nan@@@Z 10006730 f   odbc_connection.obj
 0001:00005830       ?CreateStatementSync@ODBCConnection@@SAXABV?$FunctionCallbackInfo@VValue@v8@@@Nan@@@Z 10006830 f   odbc_connection.obj
 0001:000059b0       ?CreateStatement@ODBCConnection@@SAXABV?$FunctionCallbackInfo@VValue@v8@@@Nan@@@Z 100069b0 f   odbc_connection.obj
 0001:00005b50       ?UV_CreateStatement@ODBCConnection@@KAXPAUuv_work_s@@@Z 10006b50 f   odbc_connection.obj
 0001:00005b90       ?UV_AfterCreateStatement@ODBCConnection@@KAXPAUuv_work_s@@H@Z 10006b90 f   odbc_connection.obj
 0001:00005da0       ?Query@ODBCConnection@@SAXABV?$FunctionCallbackInfo@VValue@v8@@@Nan@@@Z 10006da0 f   odbc_connection.obj
 0001:00006490       ?UV_Query@ODBCConnection@@KAXPAUuv_work_s@@@Z 10007490 f   odbc_connection.obj
 0001:00006580       ?UV_AfterQuery@ODBCConnection@@KAXPAUuv_work_s@@H@Z 10007580 f   odbc_connection.obj
 0001:000069f0       ?QuerySync@ODBCConnection@@SAXABV?$FunctionCallbackInfo@VValue@v8@@@Nan@@@Z 100079f0 f   odbc_connection.obj
 0001:00007300       ?Tables@ODBCConnection@@SAXABV?$FunctionCallbackInfo@VValue@v8@@@Nan@@@Z 10008300 f   odbc_connection.obj
 0001:00007990       ?UV_Tables@ODBCConnection@@KAXPAUuv_work_s@@@Z 10008990 f   odbc_connection.obj
 0001:000079f0       ?Columns@ODBCConnection@@SAXABV?$FunctionCallbackInfo@VValue@v8@@@Nan@@@Z 100089f0 f   odbc_connection.obj
 0001:00008080       ?UV_Columns@ODBCConnection@@KAXPAUuv_work_s@@@Z 10009080 f   odbc_connection.obj
 0001:000080e0       ?BeginTransactionSync@ODBCConnection@@SAXABV?$FunctionCallbackInfo@VValue@v8@@@Nan@@@Z 100090e0 f   odbc_connection.obj
 0001:00008220       ?BeginTransaction@ODBCConnection@@SAXABV?$FunctionCallbackInfo@VValue@v8@@@Nan@@@Z 10009220 f   odbc_connection.obj
 0001:000083b0       ?UV_BeginTransaction@ODBCConnection@@KAXPAUuv_work_s@@@Z 100093b0 f   odbc_connection.obj
 0001:000083d0       ?UV_AfterBeginTransaction@ODBCConnection@@KAXPAUuv_work_s@@H@Z 100093d0 f   odbc_connection.obj
 0001:000083d0       ?UV_AfterEndTransaction@ODBCConnection@@KAXPAUuv_work_s@@H@Z 100093d0 f   odbc_connection.obj
 0001:00008580       ?EndTransactionSync@ODBCConnection@@SAXABV?$FunctionCallbackInfo@VValue@v8@@@Nan@@@Z 10009580 f   odbc_connection.obj
 0001:000087d0       ?EndTransaction@ODBCConnection@@SAXABV?$FunctionCallbackInfo@VValue@v8@@@Nan@@@Z 100097d0 f   odbc_connection.obj
 0001:00008a30       ?UV_EndTransaction@ODBCConnection@@KAXPAUuv_work_s@@@Z 10009a30 f   odbc_connection.obj
 0001:00008aa0       ??$Unwrap@VODBCConnection@@@ObjectWrap@Nan@@SAPAVODBCConnection@@V?$Local@VObject@v8@@@v8@@@Z 10009aa0 f i odbc_connection.obj
 0001:00008aa0       ??$Unwrap@VODBCStatement@@@ObjectWrap@Nan@@SAPAVODBCStatement@@V?$Local@VObject@v8@@@v8@@@Z 10009aa0 f i odbc_statement.obj
 0001:00008b00       ??$New@VString@v8@@V?$NonCopyablePersistentTraits@VString@v8@@@2@@Nan@@YA?AV?$Local@VString@v8@@@v8@@ABV?$Persistent@VString@v8@@V?$NonCopyablePersistentTraits@VString@v8@@@2@@0@@Z 10009b00 f i odbc_connection.obj
 0001:00008b30       ??_EODBCStatement@@MAEPAXI@Z 10009b30 f i * CIL library *:* CIL module *
 0001:00008b30       ??_GODBCStatement@@MAEPAXI@Z 10009b30 f i odbc_statement.obj
 0001:00008b50       ?Init@ODBCStatement@@SAXV?$Local@VObject@v8@@@v8@@@Z 10009b50 f   odbc_statement.obj
 0001:00009540       ??1ODBCStatement@@MAE@XZ   1000a540 f   odbc_statement.obj
 0001:000095b0       ?Free@ODBCStatement@@QAEXXZ 1000a5b0 f   odbc_statement.obj
 0001:000096c0       ?New@ODBCStatement@@SAXABV?$FunctionCallbackInfo@VValue@v8@@@Nan@@@Z 1000a6c0 f   odbc_statement.obj
 0001:00009900       ?Execute@ODBCStatement@@SAXABV?$FunctionCallbackInfo@VValue@v8@@@Nan@@@Z 1000a900 f   odbc_statement.obj
 0001:00009aa0       ?UV_ExecuteNonQuery@ODBCStatement@@KAXPAUuv_work_s@@@Z 1000aaa0 f   odbc_statement.obj
 0001:00009aa0       ?UV_Execute@ODBCStatement@@KAXPAUuv_work_s@@@Z 1000aaa0 f   odbc_statement.obj
 0001:00009ac0       ?UV_AfterExecute@ODBCStatement@@KAXPAUuv_work_s@@H@Z 1000aac0 f   odbc_statement.obj
 0001:00009d30       ?ExecuteSync@ODBCStatement@@SAXABV?$FunctionCallbackInfo@VValue@v8@@@Nan@@@Z 1000ad30 f   odbc_statement.obj
 0001:00009ef0       ?ExecuteNonQuery@ODBCStatement@@SAXABV?$FunctionCallbackInfo@VValue@v8@@@Nan@@@Z 1000aef0 f   odbc_statement.obj
 0001:0000a090       ?UV_AfterExecuteNonQuery@ODBCStatement@@KAXPAUuv_work_s@@H@Z 1000b090 f   odbc_statement.obj
 0001:0000a2c0       ?ExecuteNonQuerySync@ODBCStatement@@SAXABV?$FunctionCallbackInfo@VValue@v8@@@Nan@@@Z 1000b2c0 f   odbc_statement.obj
 0001:0000a460       ?ExecuteDirect@ODBCStatement@@SAXABV?$FunctionCallbackInfo@VValue@v8@@@Nan@@@Z 1000b460 f   odbc_statement.obj
 0001:0000a6a0       ?UV_ExecuteDirect@ODBCStatement@@KAXPAUuv_work_s@@@Z 1000b6a0 f   odbc_statement.obj
 0001:0000a6c0       ?UV_AfterExecuteDirect@ODBCStatement@@KAXPAUuv_work_s@@H@Z 1000b6c0 f   odbc_statement.obj
 0001:0000a960       ?ExecuteDirectSync@ODBCStatement@@SAXABV?$FunctionCallbackInfo@VValue@v8@@@Nan@@@Z 1000b960 f   odbc_statement.obj
 0001:0000ac10       ?PrepareSync@ODBCStatement@@SAXABV?$FunctionCallbackInfo@VValue@v8@@@Nan@@@Z 1000bc10 f   odbc_statement.obj
 0001:0000ae10       ?Prepare@ODBCStatement@@SAXABV?$FunctionCallbackInfo@VValue@v8@@@Nan@@@Z 1000be10 f   odbc_statement.obj
 0001:0000b050       ?UV_Prepare@ODBCStatement@@KAXPAUuv_work_s@@@Z 1000c050 f   odbc_statement.obj
 0001:0000b070       ?UV_AfterPrepare@ODBCStatement@@KAXPAUuv_work_s@@H@Z 1000c070 f   odbc_statement.obj
 0001:0000b230       ?BindSync@ODBCStatement@@SAXABV?$FunctionCallbackInfo@VValue@v8@@@Nan@@@Z 1000c230 f   odbc_statement.obj
 0001:0000b4f0       ?Bind@ODBCStatement@@SAXABV?$FunctionCallbackInfo@VValue@v8@@@Nan@@@Z 1000c4f0 f   odbc_statement.obj
 0001:0000b7f0       ?UV_Bind@ODBCStatement@@KAXPAUuv_work_s@@@Z 1000c7f0 f   odbc_statement.obj
 0001:0000b8b0       ?UV_AfterBind@ODBCStatement@@KAXPAUuv_work_s@@H@Z 1000c8b0 f   odbc_statement.obj
 0001:0000ba70       ?CloseSync@ODBCStatement@@SAXABV?$FunctionCallbackInfo@VValue@v8@@@Nan@@@Z 1000ca70 f   odbc_statement.obj
 0001:0000bc10       ??_GODBCResult@@MAEPAXI@Z  1000cc10 f i odbc_result.obj
 0001:0000bc10       ??_EODBCResult@@MAEPAXI@Z  1000cc10 f i * CIL library *:* CIL module *
 0001:0000bc50       ?Init@ODBCResult@@SAXV?$Local@VObject@v8@@@v8@@@Z 1000cc50 f   odbc_result.obj
 0001:0000c3c0       ??1ODBCResult@@MAE@XZ      1000d3c0 f   odbc_result.obj
 0001:0000c480       ?Free@ODBCResult@@QAEXXZ   1000d480 f   odbc_result.obj
 0001:0000c4e0       ?New@ODBCResult@@SAXABV?$FunctionCallbackInfo@VValue@v8@@@Nan@@@Z 1000d4e0 f   odbc_result.obj
 0001:0000c750       ?FetchModeGetter@ODBCResult@@SAXV?$Local@VString@v8@@@v8@@ABV?$PropertyCallbackInfo@VValue@v8@@@Nan@@@Z 1000d750 f   odbc_result.obj
 0001:0000c840       ?FetchModeSetter@ODBCResult@@SAXV?$Local@VString@v8@@@v8@@V?$Local@VValue@v8@@@3@ABV?$PropertyCallbackInfo@X@Nan@@@Z 1000d840 f   odbc_result.obj
 0001:0000c8e0       ?Fetch@ODBCResult@@SAXABV?$FunctionCallbackInfo@VValue@v8@@@Nan@@@Z 1000d8e0 f   odbc_result.obj
 0001:0000cc40       ?UV_Fetch@ODBCResult@@KAXPAUuv_work_s@@@Z 1000dc40 f   odbc_result.obj
 0001:0000cc40       ?UV_FetchAll@ODBCResult@@KAXPAUuv_work_s@@@Z 1000dc40 f   odbc_result.obj
 0001:0000cc60       ?UV_AfterFetch@ODBCResult@@KAXPAUuv_work_s@@H@Z 1000dc60 f   odbc_result.obj
 0001:0000cf70       ?FetchSync@ODBCResult@@SAXABV?$FunctionCallbackInfo@VValue@v8@@@Nan@@@Z 1000df70 f   odbc_result.obj
 0001:0000d240       ?FetchAll@ODBCResult@@SAXABV?$FunctionCallbackInfo@VValue@v8@@@Nan@@@Z 1000e240 f   odbc_result.obj
 0001:0000d630       ?UV_AfterFetchAll@ODBCResult@@KAXPAUuv_work_s@@H@Z 1000e630 f   odbc_result.obj
 0001:0000d990       ?FetchAllSync@ODBCResult@@SAXABV?$FunctionCallbackInfo@VValue@v8@@@Nan@@@Z 1000e990 f   odbc_result.obj
 0001:0000dd20       ?CloseSync@ODBCResult@@SAXABV?$FunctionCallbackInfo@VValue@v8@@@Nan@@@Z 1000ed20 f   odbc_result.obj
 0001:0000ded0       ?MoreResultsSync@ODBCResult@@SAXABV?$FunctionCallbackInfo@VValue@v8@@@Nan@@@Z 1000eed0 f   odbc_result.obj
 0001:0000dfe0       ?GetColumnNamesSync@ODBCResult@@SAXABV?$FunctionCallbackInfo@VValue@v8@@@Nan@@@Z 1000efe0 f   odbc_result.obj
 0001:0000e180       _strptime                  1000f180 f   strptime.obj
 0001:0000e7cb       __imp_load__uv_mutex_unlock 1000f7cb f   node:node.exe
 0001:0000e7d5       __tailMerge_node_exe       1000f7d5 f i node:node.exe
 0001:0000e7e6       __imp_load__uv_queue_work  1000f7e6 f   node:node.exe
 0001:0000e7f0       __imp_load_?Global@Context@v8@@QAE?AV?$Local@VObject@v8@@@2@XZ 1000f7f0 f   node:node.exe
 0001:0000e7fa       __imp_load_?Value@External@v8@@QBEPAXXZ 1000f7fa f   node:node.exe
 0001:0000e804       __imp_load_?New@External@v8@@SA?AV?$Local@VExternal@v8@@@2@PAVIsolate@2@PAX@Z 1000f804 f   node:node.exe
 0001:0000e80e       __imp_load_?New@Integer@v8@@SA?AV?$Local@VInteger@v8@@@2@PAVIsolate@2@H@Z 1000f80e f   node:node.exe
 0001:0000e818       __imp_load_?New@Signature@v8@@SA?AV?$Local@VSignature@v8@@@2@PAVIsolate@2@V?$Local@VFunctionTemplate@v8@@@2@@Z 1000f818 f   node:node.exe
 0001:0000e822       __imp_load_?CollectAllGarbage@Isolate@v8@@AAEXPBD@Z 1000f822 f   node:node.exe
 0001:0000e82c       __imp_load_?VisitHandlesForPartialDependence@Isolate@v8@@QAEXPAVPersistentHandleVisitor@2@@Z 1000f82c f   node:node.exe
 0001:0000e836       __imp_load_?VisitHandlesWithClassIds@Isolate@v8@@QAEXPAVPersistentHandleVisitor@2@@Z 1000f836 f   node:node.exe
 0001:0000e840       __imp_load_?VisitExternalResources@Isolate@v8@@QAEXPAVExternalResourceVisitor@2@@Z 1000f840 f   node:node.exe
 0001:0000e84a       __imp_load_?RemoveMemoryAllocationCallback@Isolate@v8@@QAEXP6AXW4ObjectSpace@2@W4AllocationAction@2@H@Z@Z 1000f84a f   node:node.exe
 0001:0000e854       __imp_load_?AddMemoryAllocationCallback@Isolate@v8@@QAEXP6AXW4ObjectSpace@2@W4AllocationAction@2@H@Z01@Z 1000f854 f   node:node.exe
 0001:0000e85e       __imp_load_?SetCaptureStackTraceForUncaughtExceptions@Isolate@v8@@QAEX_NHW4StackTraceOptions@StackTrace@2@@Z 1000f85e f   node:node.exe
 0001:0000e868       __imp_load_?SetFailedAccessCheckCallbackFunction@Isolate@v8@@QAEXP6AXV?$Local@VObject@v8@@@2@W4AccessType@2@V?$Local@VValue@v8@@@2@@Z@Z 1000f868 f   node:node.exe
 0001:0000e872       __imp_load_?RemoveMessageListeners@Isolate@v8@@QAEXP6AXV?$Local@VMessage@v8@@@2@V?$Local@VValue@v8@@@2@@Z@Z 1000f872 f   node:node.exe
 0001:0000e87c       __imp_load_?AddMessageListener@Isolate@v8@@QAE_NP6AXV?$Local@VMessage@v8@@@2@V?$Local@VValue@v8@@@2@@Z1@Z 1000f87c f   node:node.exe
 0001:0000e886       __imp_load_?IsDead@Isolate@v8@@QAE_NXZ 1000f886 f   node:node.exe
 0001:0000e890       __imp_load_?SetAllowCodeGenerationFromStringsCallback@Isolate@v8@@QAEXP6A_NV?$Local@VContext@v8@@@2@@Z@Z 1000f890 f   node:node.exe
 0001:0000e89a       __imp_load_?SetFatalErrorHandler@Isolate@v8@@QAEXP6AXPBD0@Z@Z 1000f89a f   node:node.exe
 0001:0000e8a4       __imp_load_?CancelTerminateExecution@Isolate@v8@@QAEXXZ 1000f8a4 f   node:node.exe
 0001:0000e8ae       __imp_load_?IsExecutionTerminating@Isolate@v8@@QAE_NXZ 1000f8ae f   node:node.exe
 0001:0000e8b8       __imp_load_?TerminateExecution@Isolate@v8@@QAEXXZ 1000f8b8 f   node:node.exe
 0001:0000e8c2       __imp_load_?RemoveGCEpilogueCallback@Isolate@v8@@QAEXP6AXPAV12@W4GCType@2@W4GCCallbackFlags@2@@Z@Z 1000f8c2 f   node:node.exe
 0001:0000e8cc       __imp_load_?RemoveGCPrologueCallback@Isolate@v8@@QAEXP6AXPAV12@W4GCType@2@W4GCCallbackFlags@2@@Z@Z 1000f8cc f   node:node.exe
 0001:0000e8d6       __imp_load_?ThrowException@Isolate@v8@@QAE?AV?$Local@VValue@v8@@@2@V32@@Z 1000f8d6 f   node:node.exe
 0001:0000e8e0       __imp_load_?GetCurrentContext@Isolate@v8@@QAE?AV?$Local@VContext@v8@@@2@XZ 1000f8e0 f   node:node.exe
 0001:0000e8ea       __imp_load_?Exit@Isolate@v8@@QAEXXZ 1000f8ea f   node:node.exe
 0001:0000e8f4       __imp_load_?Enter@Isolate@v8@@QAEXXZ 1000f8f4 f   node:node.exe
 0001:0000e8fe       __imp_load_?GetCurrent@Isolate@v8@@SAPAV12@XZ 1000f8fe f   node:node.exe
 0001:0000e908       __imp_load_?ResetToBookmark@ExternalSourceStream@ScriptCompiler@v8@@UAEXXZ 1000f908 f   node:node.exe
 0001:0000e912       ?ResetToBookmark@ExternalSourceStream@ScriptCompiler@v8@@UAEXXZ 1000f912 f   node:node.exe
 0001:0000e918       __imp_load_?SetBookmark@ExternalSourceStream@ScriptCompiler@v8@@UAE_NXZ 1000f918 f   node:node.exe
 0001:0000e922       ?SetBookmark@ExternalSourceStream@ScriptCompiler@v8@@UAE_NXZ 1000f922 f   node:node.exe
 0001:0000e928       __imp_load_?CreateHandle@HandleScope@v8@@KAPAPAVObject@internal@2@PAVIsolate@42@PAV342@@Z 1000f928 f   node:node.exe
 0001:0000e932       __imp_load_?CreateHandle@HandleScope@v8@@CAPAPAVObject@internal@2@PAVHeapObject@42@PAV342@@Z 1000f932 f   node:node.exe
 0001:0000e93c       __imp_load_??1HandleScope@v8@@QAE@XZ 1000f93c f   node:node.exe
 0001:0000e946       __imp_load_??0HandleScope@v8@@QAE@PAVIsolate@1@@Z 1000f946 f   node:node.exe
 0001:0000e950       __imp_load_?Set@Template@v8@@QAEXV?$Local@VName@v8@@@2@V?$Local@VData@v8@@@2@W4PropertyAttribute@2@@Z 1000f950 f   node:node.exe
 0001:0000e95a       __imp_load_?Error@Exception@v8@@SA?AV?$Local@VValue@v8@@@2@V?$Local@VString@v8@@@2@@Z 1000f95a f   node:node.exe
 0001:0000e964       __imp_load_?Initialize@Locker@v8@@AAEXPAVIsolate@2@@Z 1000f964 f   node:node.exe
 0001:0000e96e       __imp_load_?New@Array@v8@@SA?AV?$Local@VArray@v8@@@2@PAVIsolate@2@H@Z 1000f96e f   node:node.exe
 0001:0000e978       __imp_load_?Length@Array@v8@@QBEIXZ 1000f978 f   node:node.exe
 0001:0000e982       __imp_load_?Initialize@Unlocker@v8@@AAEXPAVIsolate@2@@Z 1000f982 f   node:node.exe
 0001:0000e98c       __imp_load_?New@Date@v8@@SA?AV?$MaybeLocal@VValue@v8@@@2@V?$Local@VContext@v8@@@2@N@Z 1000f98c f   node:node.exe
 0001:0000e996       __imp_load_?SetClassName@FunctionTemplate@v8@@QAEXV?$Local@VString@v8@@@2@@Z 1000f996 f   node:node.exe
 0001:0000e9a0       __imp_load_?PrototypeTemplate@FunctionTemplate@v8@@QAE?AV?$Local@VObjectTemplate@v8@@@2@XZ 1000f9a0 f   node:node.exe
 0001:0000e9aa       __imp_load_?InstanceTemplate@FunctionTemplate@v8@@QAE?AV?$Local@VObjectTemplate@v8@@@2@XZ 1000f9aa f   node:node.exe
 0001:0000e9b4       __imp_load_?GetFunction@FunctionTemplate@v8@@QAE?AV?$Local@VFunction@v8@@@2@XZ 1000f9b4 f   node:node.exe
 0001:0000e9be       __imp_load_?GetFunction@FunctionTemplate@v8@@QAE?AV?$MaybeLocal@VFunction@v8@@@2@V?$Local@VContext@v8@@@2@@Z 1000f9be f   node:node.exe
 0001:0000e9c8       __imp_load_?New@FunctionTemplate@v8@@SA?AV?$Local@VFunctionTemplate@v8@@@2@PAVIsolate@2@P6AXABV?$FunctionCallbackInfo@VValue@v8@@@2@@ZV?$Local@VValue@v8@@@2@V?$Local@VSignature@v8@@@2@H@Z 1000f9c8 f   node:node.exe
 0001:0000e9d2       __imp_load_?ToLocalEmpty@V8@v8@@CAXXZ 1000f9d2 f   node:node.exe
 0001:0000e9dc       __imp_load_?ClearWeak@V8@v8@@CAPAXPAPAVObject@internal@2@@Z 1000f9dc f   node:node.exe
 0001:0000e9e6       __imp_load_?MakeWeak@V8@v8@@CAXPAPAVObject@internal@2@PAXP6AXABV?$WeakCallbackInfo@X@2@@ZW4WeakCallbackType@2@@Z 1000f9e6 f   node:node.exe
 0001:0000e9f0       __imp_load_?DisposeGlobal@V8@v8@@CAXPAPAVObject@internal@2@@Z 1000f9f0 f   node:node.exe
 0001:0000e9fa       __imp_load_?GlobalizeReference@V8@v8@@CAPAPAVObject@internal@2@PAVIsolate@42@PAPAV342@@Z 1000f9fa f   node:node.exe
 0001:0000ea04       __imp_load_?IntegerValue@Value@v8@@QBE_JXZ 1000fa04 f   node:node.exe
 0001:0000ea0e       __imp_load_?NumberValue@Value@v8@@QBENXZ 1000fa0e f   node:node.exe
 0001:0000ea18       __imp_load_?BooleanValue@Value@v8@@QBE_NXZ 1000fa18 f   node:node.exe
 0001:0000ea22       __imp_load_?ToInt32@Value@v8@@QBE?AV?$MaybeLocal@VInt32@v8@@@2@V?$Local@VContext@v8@@@2@@Z 1000fa22 f   node:node.exe
 0001:0000ea2c       __imp_load_?ToUint32@Value@v8@@QBE?AV?$MaybeLocal@VUint32@v8@@@2@V?$Local@VContext@v8@@@2@@Z 1000fa2c f   node:node.exe
 0001:0000ea36       __imp_load_?ToInteger@Value@v8@@QBE?AV?$MaybeLocal@VInteger@v8@@@2@V?$Local@VContext@v8@@@2@@Z 1000fa36 f   node:node.exe
 0001:0000ea40       __imp_load_?ToObject@Value@v8@@QBE?AV?$MaybeLocal@VObject@v8@@@2@V?$Local@VContext@v8@@@2@@Z 1000fa40 f   node:node.exe
 0001:0000ea4a       __imp_load_?ToDetailString@Value@v8@@QBE?AV?$MaybeLocal@VString@v8@@@2@V?$Local@VContext@v8@@@2@@Z 1000fa4a f   node:node.exe
 0001:0000ea54       __imp_load_?ToString@Value@v8@@QBE?AV?$MaybeLocal@VString@v8@@@2@V?$Local@VContext@v8@@@2@@Z 1000fa54 f   node:node.exe
 0001:0000ea5e       __imp_load_?ToNumber@Value@v8@@QBE?AV?$MaybeLocal@VNumber@v8@@@2@V?$Local@VContext@v8@@@2@@Z 1000fa5e f   node:node.exe
 0001:0000ea68       __imp_load_?ToBoolean@Value@v8@@QBE?AV?$MaybeLocal@VBoolean@v8@@@2@V?$Local@VContext@v8@@@2@@Z 1000fa68 f   node:node.exe
 0001:0000ea72       __imp_load_?IsInt32@Value@v8@@QBE_NXZ 1000fa72 f   node:node.exe
 0001:0000ea7c       __imp_load_?IsNumber@Value@v8@@QBE_NXZ 1000fa7c f   node:node.exe
 0001:0000ea86       __imp_load_?IsBoolean@Value@v8@@QBE_NXZ 1000fa86 f   node:node.exe
 0001:0000ea90       __imp_load_?HasCaught@TryCatch@v8@@QBE_NXZ 1000fa90 f   node:node.exe
 0001:0000ea9a       __imp_load_??1TryCatch@v8@@QAE@XZ 1000fa9a f   node:node.exe
 0001:0000eaa4       __imp_load_??0TryCatch@v8@@QAE@PAVIsolate@1@@Z 1000faa4 f   node:node.exe
 0001:0000eaae       __imp_load_?Escape@EscapableHandleScope@v8@@AAEPAPAVObject@internal@2@PAPAV342@@Z 1000faae f   node:node.exe
 0001:0000eab8       __imp_load_??0EscapableHandleScope@v8@@QAE@PAVIsolate@1@@Z 1000fab8 f   node:node.exe
 0001:0000eac2       __imp_load_?Concat@String@v8@@SA?AV?$Local@VString@v8@@@2@V32@0@Z 1000fac2 f   node:node.exe
 0001:0000eacc       __imp_load_?NewFromTwoByte@String@v8@@SA?AV?$MaybeLocal@VString@v8@@@2@PAVIsolate@2@PBGW4NewStringType@2@H@Z 1000facc f   node:node.exe
 0001:0000ead6       __imp_load_?NewFromUtf8@String@v8@@SA?AV?$MaybeLocal@VString@v8@@@2@PAVIsolate@2@PBDW4NewStringType@2@H@Z 1000fad6 f   node:node.exe
 0001:0000eae0       __imp_load_?Write@String@v8@@QBEHPAGHHH@Z 1000fae0 f   node:node.exe
 0001:0000eaea       __imp_load_?Length@String@v8@@QBEHXZ 1000faea f   node:node.exe
 0001:0000eaf4       __imp_load_?New@Number@v8@@SA?AV?$Local@VNumber@v8@@@2@PAVIsolate@2@N@Z 1000faf4 f   node:node.exe
 0001:0000eafe       __imp_load_?SlowGetAlignedPointerFromInternalField@Object@v8@@AAEPAXH@Z 1000fafe f   node:node.exe
 0001:0000eb08       __imp_load_?SlowGetInternalField@Object@v8@@AAE?AV?$Local@VValue@v8@@@2@H@Z 1000fb08 f   node:node.exe
 0001:0000eb12       __imp_load_?New@Object@v8@@SA?AV?$Local@VObject@v8@@@2@PAVIsolate@2@@Z 1000fb12 f   node:node.exe
 0001:0000eb1c       __imp_load_?SetAlignedPointerInInternalField@Object@v8@@QAEXHPAX@Z 1000fb1c f   node:node.exe
 0001:0000eb26       __imp_load_?SetInternalField@Object@v8@@QAEXHV?$Local@VValue@v8@@@2@@Z 1000fb26 f   node:node.exe
 0001:0000eb30       __imp_load_?InternalFieldCount@Object@v8@@QAEHXZ 1000fb30 f   node:node.exe
 0001:0000eb3a       __imp_load_?SetPrototype@Object@v8@@QAE_NV?$Local@VValue@v8@@@2@@Z 1000fb3a f   node:node.exe
 0001:0000eb44       __imp_load_?Get@Object@v8@@QAE?AV?$Local@VValue@v8@@@2@I@Z 1000fb44 f   node:node.exe
 0001:0000eb4e       __imp_load_?Set@Object@v8@@QAE_NV?$Local@VValue@v8@@@2@0@Z 1000fb4e f   node:node.exe
 0001:0000eb58       __imp_load_?Set@Object@v8@@QAE?AV?$Maybe@_N@2@V?$Local@VContext@v8@@@2@IV?$Local@VValue@v8@@@2@@Z 1000fb58 f   node:node.exe
 0001:0000eb62       __imp_load_?SetName@Function@v8@@QAEXV?$Local@VString@v8@@@2@@Z 1000fb62 f   node:node.exe
 0001:0000eb6c       __imp_load_?NewInstance@Function@v8@@QBE?AV?$Local@VObject@v8@@@2@HQAV?$Local@VValue@v8@@@2@@Z 1000fb6c f   node:node.exe
 0001:0000eb76       __imp_load_?NewInstance@Function@v8@@QBE?AV?$MaybeLocal@VObject@v8@@@2@V?$Local@VContext@v8@@@2@HQAV?$Local@VValue@v8@@@2@@Z 1000fb76 f   node:node.exe
 0001:0000eb80       __imp_load_?SetInternalFieldCount@ObjectTemplate@v8@@QAEXH@Z 1000fb80 f   node:node.exe
 0001:0000eb8a       __imp_load_?SetHandler@ObjectTemplate@v8@@QAEXABUIndexedPropertyHandlerConfiguration@2@@Z 1000fb8a f   node:node.exe
 0001:0000eb94       __imp_load_?NewInstance@ObjectTemplate@v8@@QAE?AV?$MaybeLocal@VObject@v8@@@2@V?$Local@VContext@v8@@@2@@Z 1000fb94 f   node:node.exe
 0001:0000eb9e       __imp_load_?New@ObjectTemplate@v8@@SA?AV?$Local@VObjectTemplate@v8@@@2@PAVIsolate@2@V?$Local@VFunctionTemplate@v8@@@2@@Z 1000fb9e f   node:node.exe
 0001:0000eba8       __imp_load__uv_mutex_lock  1000fba8 f   node:node.exe
 0001:0000ebb2       __imp_load_?FatalException@node@@YAXPAVIsolate@v8@@ABVTryCatch@3@@Z 1000fbb2 f   node:node.exe
 0001:0000ebbc       __imp_load__node_module_register 1000fbbc f   node:node.exe
 0001:0000ebc6       __imp_load_?MakeCallback@node@@YA?AV?$Local@VValue@v8@@@v8@@PAVIsolate@3@V?$Local@VObject@v8@@@3@V?$Local@VFunction@v8@@@3@HPAV23@@Z 1000fbc6 f   node:node.exe
 0001:0000ebd0       __imp_load__uv_mutex_init  1000fbd0 f   node:node.exe
 0001:0000ebda       __imp_load__uv_default_loop 1000fbda f   node:node.exe
 0001:0000ebe4       __imp_load__uv_unref       1000fbe4 f   node:node.exe
 0001:0000ebee       __imp_load_?LowMemoryNotification@Isolate@v8@@QAEXXZ 1000fbee f   node:node.exe
 0001:0000ebf8       __imp_load_?TypeError@Exception@v8@@SA?AV?$Local@VValue@v8@@@2@V?$Local@VString@v8@@@2@@Z 1000fbf8 f   node:node.exe
 0001:0000ec02       __imp_load_?Value@Boolean@v8@@QBE_NXZ 1000fc02 f   node:node.exe
 0001:0000ec0c       __imp_load_?Equals@Value@v8@@QBE_NV?$Local@VValue@v8@@@2@@Z 1000fc0c f   node:node.exe
 0001:0000ec16       __imp_load_?Uint32Value@Value@v8@@QBEIXZ 1000fc16 f   node:node.exe
 0001:0000ec20       __imp_load_?IsExternal@Value@v8@@QBE_NXZ 1000fc20 f   node:node.exe
 0001:0000ec2a       __imp_load_?IsObject@Value@v8@@QBE_NXZ 1000fc2a f   node:node.exe
 0001:0000ec34       __imp_load_?IsArray@Value@v8@@QBE_NXZ 1000fc34 f   node:node.exe
 0001:0000ec3e       __imp_load_?IsFunction@Value@v8@@QBE_NXZ 1000fc3e f   node:node.exe
 0001:0000ec48       __imp_load_??1Value@String@v8@@QAE@XZ 1000fc48 f   node:node.exe
 0001:0000ec52       __imp_load_??0Value@String@v8@@QAE@V?$Local@VValue@v8@@@2@@Z 1000fc52 f   node:node.exe
 0001:0000ec5c       __imp_load_?Has@Object@v8@@QAE_NV?$Local@VValue@v8@@@2@@Z 1000fc5c f   node:node.exe
 0001:0000ec66       __imp_load_?Get@Object@v8@@QAE?AV?$Local@VValue@v8@@@2@V32@@Z 1000fc66 f   node:node.exe
 0001:0000ec70       __imp_load_?SetAccessor@ObjectTemplate@v8@@QAEXV?$Local@VName@v8@@@2@P6AX0ABV?$PropertyCallbackInfo@VValue@v8@@@2@@ZP6AX0V?$Local@VValue@v8@@@2@ABV?$PropertyCallbackInfo@X@2@@Z3W4AccessControl@2@W4PropertyAttribute@2@V?$Local@VAccessorSignature@v8@@@2@@Z 1000fc70 f   node:node.exe
 0001:0000ec7a       __imp_load_?Int32Value@Value@v8@@QBEHXZ 1000fc7a f   node:node.exe
 0001:0000ec84       __imp_load_?Value@Int32@v8@@QBEHXZ 1000fc84 f   node:node.exe
 0001:0000ec8e       @__security_check_cookie@4 1000fc8e f   LIBCMT:_secchk_.obj
 0001:0000ec9f       ??_V@YAXPAX@Z              1000fc9f f   LIBCMT:delete_array.obj
 0001:0000eca4       ??_V@YAXPAXI@Z             1000fca4 f   LIBCMT:delete_array_size.obj
 0001:0000ecb2       ??2@YAPAXI@Z               1000fcb2 f   LIBCMT:new_scalar.obj
 0001:0000ed29       ___scrt_acquire_startup_lock 1000fd29 f   LIBCMT:utility.obj
 0001:0000ed5e       ___scrt_dllmain_after_initialize_c 1000fd5e f   LIBCMT:utility.obj
 0001:0000ed76       ___scrt_dllmain_before_initialize_c 1000fd76 f   LIBCMT:utility.obj
 0001:0000ed84       ___scrt_dllmain_crt_thread_attach 1000fd84 f   LIBCMT:utility.obj
 0001:0000eda3       ___scrt_dllmain_crt_thread_detach 1000fda3 f   LIBCMT:utility.obj
 0001:0000edb0       ___scrt_dllmain_exception_filter 1000fdb0 f   LIBCMT:utility.obj
 0001:0000ede3       ___scrt_dllmain_uninitialize_c 1000fde3 f   LIBCMT:utility.obj
 0001:0000ee06       ___scrt_dllmain_uninitialize_critical 1000fe06 f   LIBCMT:utility.obj
 0001:0000ee13       ___scrt_initialize_crt     1000fe13 f   LIBCMT:utility.obj
 0001:0000ee4c       ___scrt_initialize_onexit_tables 1000fe4c f   LIBCMT:utility.obj
 0001:0000eee3       ___scrt_is_nonwritable_in_current_image 1000fee3 f   LIBCMT:utility.obj
 0001:0000ef70       ___scrt_release_startup_lock 1000ff70 f   LIBCMT:utility.obj
 0001:0000ef8d       ___scrt_uninitialize_crt   1000ff8d f   LIBCMT:utility.obj
 0001:0000efb5       __onexit                   1000ffb5 f   LIBCMT:utility.obj
 0001:0000eff0       _atexit                    1000fff0 f   LIBCMT:utility.obj
 0001:0000f005       ??3@YAXPAX@Z               10010005 f   LIBCMT:delete_scalar.obj
 0001:0000f00a       ??3@YAXPAXI@Z              1001000a f   LIBCMT:delete_scalar_size.obj
 0001:0000f018       ??_U@YAPAXI@Z              10010018 f   LIBCMT:new_array.obj
 0001:0000f336       __DllMainCRTStartup@12     10010336 f   LIBCMT:dll_dllmain.obj
 0001:0000f359       ___raise_securityfailure   10010359 f   LIBCMT:gs_report.obj
 0001:0000f381       ___report_gsfailure        10010381 f   LIBCMT:gs_report.obj
 0001:0000f47c       ??0bad_alloc@std@@QAE@ABV01@@Z 1001047c f i LIBCMT:throw_bad_alloc.obj
 0001:0000f49d       ??0bad_alloc@std@@QAE@XZ   1001049d f i LIBCMT:throw_bad_alloc.obj
 0001:0000f4b5       ??0bad_array_new_length@std@@QAE@ABV01@@Z 100104b5 f i LIBCMT:throw_bad_alloc.obj
 0001:0000f4d6       ??0bad_array_new_length@std@@QAE@XZ 100104d6 f i LIBCMT:throw_bad_alloc.obj
 0001:0000f4ee       ??0exception@std@@QAE@ABV01@@Z 100104ee f i LIBCMT:throw_bad_alloc.obj
 0001:0000f51a       ??1bad_alloc@std@@UAE@XZ   1001051a f i LIBCMT:throw_bad_alloc.obj
 0001:0000f51a       ??1bad_array_new_length@std@@UAE@XZ 1001051a f i LIBCMT:throw_bad_alloc.obj
 0001:0000f52b       ??_Ebad_alloc@std@@UAEPAXI@Z 1001052b f i LIBCMT:throw_bad_alloc.obj
 0001:0000f52b       ??_Ebad_array_new_length@std@@UAEPAXI@Z 1001052b f i LIBCMT:throw_bad_alloc.obj
 0001:0000f52b       ??_Gbad_array_new_length@std@@UAEPAXI@Z 1001052b f i LIBCMT:throw_bad_alloc.obj
 0001:0000f52b       ??_Gbad_alloc@std@@UAEPAXI@Z 1001052b f i LIBCMT:throw_bad_alloc.obj
 0001:0000f52b       ??_Eexception@std@@UAEPAXI@Z 1001052b f i LIBCMT:throw_bad_alloc.obj
 0001:0000f52b       ??_Gexception@std@@UAEPAXI@Z 1001052b f i LIBCMT:throw_bad_alloc.obj
 0001:0000f558       ?__scrt_throw_std_bad_alloc@@YAXXZ 10010558 f   LIBCMT:throw_bad_alloc.obj
 0001:0000f575       ?__scrt_throw_std_bad_array_new_length@@YAXXZ 10010575 f   LIBCMT:throw_bad_alloc.obj
 0001:0000f592       ?what@exception@std@@UBEPBDXZ 10010592 f i LIBCMT:throw_bad_alloc.obj
 0001:0000f59f       ___isa_available_init      1001059f f   LIBCMT:_cpu_disp_.obj
 0001:0000f740       ___scrt_is_ucrt_dll_in_use 10010740 f   LIBCMT:ucrt_detection.obj
 0001:0000f74c       ___scrt_fastfail           1001074c f   LIBCMT:utility_desktop.obj
 0001:0000f867       __crt_debugger_hook        10010867 f   LIBCMT:utility_desktop.obj
 0001:0000f86f       @_guard_check_icall@4      1001086f f i LIBCMT:checkcfg.obj
 0001:0000f880       __SEH_prolog4              10010880 f   LIBCMT:_sehprolg4_.obj
 0001:0000f8c6       __SEH_epilog4              100108c6 f   LIBCMT:_sehprolg4_.obj
 0001:0000f8db       ___security_init_cookie    100108db f   LIBCMT:gs_support.obj
 0001:0000f977       _DllMain@12                10010977 f   LIBCMT:dll_dllmain_stub.obj
 0001:0000f97d       ?__scrt_initialize_type_info@@YAXXZ 1001097d f   LIBCMT:tncleanup.obj
 0001:0000f989       ?__scrt_uninitialize_type_info@@YAXXZ 10010989 f   LIBCMT:tncleanup.obj
 0001:0000f995       ___local_stdio_printf_options 10010995 f i LIBCMT:default_local_stdio_options.obj
 0001:0000f99b       ___local_stdio_scanf_options 1001099b f i LIBCMT:default_local_stdio_options.obj
 0001:0000f9a1       ___scrt_initialize_default_local_stdio_options 100109a1 f   LIBCMT:default_local_stdio_options.obj
 0001:0000f9be       ___scrt_get_dyn_tls_init_callback 100109be f   LIBCMT:dyn_tls_init.obj
 0001:0000f9c4       __RTC_Initialize           100109c4 f   LIBCMT:_initsect_.obj
 0001:0000f9ef       __RTC_Terminate            100109ef f   LIBCMT:_initsect_.obj
 0001:0000fa1a       ??_Etype_info@@UAEPAXI@Z   10010a1a f i LIBCMT:std_type_info_static.obj
 0001:0000fa1a       ??_Gtype_info@@UAEPAXI@Z   10010a1a f i LIBCMT:std_type_info_static.obj
 0001:0000fa3d       __get_purecall_handler     10010a3d f   libvcruntime:purevirt.obj
 0001:0000fa5c       __purecall                 10010a5c f   libvcruntime:purevirt.obj
 0001:0000fa77       ___vcrt_initialize         10010a77 f   libvcruntime:initialization.obj
 0001:0000faa5       ___vcrt_thread_attach      10010aa5 f   libvcruntime:initialization.obj
 0001:0000fab0       ___vcrt_thread_detach      10010ab0 f   libvcruntime:initialization.obj
 0001:0000fabb       ___vcrt_uninitialize       10010abb f   libvcruntime:initialization.obj
 0001:0000fadf       ___vcrt_uninitialize_critical 10010adf f   libvcruntime:initialization.obj
 0001:0000fb30       __except_handler4          10010b30 f   libvcruntime:_chandler4_.obj
 0001:0000fcc4       ___telemetry_main_invoke_trigger 10010cc4 f   libvcruntime:telemetry.obj
 0001:0000fd60       ___telemetry_main_return_trigger 10010d60 f   libvcruntime:telemetry.obj
 0001:0000fdfc       ___vcrt_initialize_telemetry_provider 10010dfc f   libvcruntime:telemetry.obj
 0001:0000fe0f       ___vcrt_uninitialize_telemetry_provider 10010e0f f   libvcruntime:telemetry.obj
 0001:0000fe1b       ___std_exception_copy      10010e1b f   libvcruntime:std_exception.obj
 0001:0000fe7e       ___std_exception_destroy   10010e7e f   libvcruntime:std_exception.obj
 0001:0000fe9d       __CxxThrowException@8      10010e9d f   libvcruntime:throw.obj
 0001:0000ff10       _memset                    10010f10 f   libvcruntime:memset.obj
 0001:0001006a       ___std_type_info_destroy_list 1001106a f   libvcruntime:std_type_info.obj
 0001:0001008d       ___vcrt_initialize_pure_virtual_call_handler 1001108d f   libvcruntime:purevirt_data.obj
 0001:000100aa       ___vcrt_freefls@4          100110aa f   libvcruntime:per_thread_data.obj
 0001:000100c6       ___vcrt_freeptd            100110c6 f   libvcruntime:per_thread_data.obj
 0001:000100fc       ___vcrt_getptd_noexit      100110fc f   libvcruntime:per_thread_data.obj
 0001:00010174       ___vcrt_initialize_ptd     10011174 f   libvcruntime:per_thread_data.obj
 0001:000101a7       ___vcrt_uninitialize_ptd   100111a7 f   libvcruntime:per_thread_data.obj
 0001:000101c2       ___vcrt_initialize_locks   100111c2 f   libvcruntime:locks.obj
 0001:000101fe       ___vcrt_uninitialize_locks 100111fe f   libvcruntime:locks.obj
 0001:0001022d       ??$__crt_fast_encode_pointer@PAP6AXXZ@@YAPAP6AXXZQAP6AXXZ@Z 1001122d f i LIBCMT:utility.obj
 0001:0001022d       ??$__crt_fast_encode_pointer@PAX@@YAPAXQAX@Z 1001122d f i libvcruntime:winapi_downlevel.obj
 0001:0001036b       ___vcrt_EventRegister      1001136b f   libvcruntime:winapi_downlevel.obj
 0001:000103ab       ___vcrt_EventSetInformation 100113ab f   libvcruntime:winapi_downlevel.obj
 0001:000103ee       ___vcrt_EventUnregister    100113ee f   libvcruntime:winapi_downlevel.obj
 0001:00010428       ___vcrt_EventWriteTransfer 10011428 f   libvcruntime:winapi_downlevel.obj
 0001:00010471       ___vcrt_FlsAlloc           10011471 f   libvcruntime:winapi_downlevel.obj
 0001:000104ab       ___vcrt_FlsFree            100114ab f   libvcruntime:winapi_downlevel.obj
 0001:000104e5       ___vcrt_FlsGetValue        100114e5 f   libvcruntime:winapi_downlevel.obj
 0001:0001051f       ___vcrt_FlsSetValue        1001151f f   libvcruntime:winapi_downlevel.obj
 0001:0001055c       ___vcrt_InitializeCriticalSectionEx 1001155c f   libvcruntime:winapi_downlevel.obj
 0001:000105a2       ___vcrt_initialize_winapi_thunks 100115a2 f   libvcruntime:winapi_downlevel.obj
 0001:000105c6       ___vcrt_uninitialize_winapi_thunks 100115c6 f   libvcruntime:winapi_downlevel.obj
 0001:00010600       __local_unwind4            10011600 f   libvcruntime:_exsup4_.obj
 0001:000106d6       __seh_longjmp_unwind4@4    100116d6 f   libvcruntime:_exsup4_.obj
 0001:000106fe       @_EH4_CallFilterFunc@8     100116fe f   libvcruntime:_exsup4_.obj
 0001:00010715       @_EH4_TransferToHandler@8  10011715 f   libvcruntime:_exsup4_.obj
 0001:0001072e       @_EH4_GlobalUnwind2@8      1001172e f   libvcruntime:_exsup4_.obj
 0001:00010747       @_EH4_LocalUnwind@16       10011747 f   libvcruntime:_exsup4_.obj
 0001:0001075e       ___except_validate_context_record 1001175e f   libvcruntime:jbcxrval.obj
 0001:0001075e       @_guard_check_icall_nop@4  1001175e f   LIBCMT:guard_support.obj
 0001:0001075e       ___except_validate_jump_buffer 1001175e f   libvcruntime:jbcxrval.obj
 0001:00010760       __global_unwind2           10011760 f   libvcruntime:_exsup_.obj
 0001:000107c5       __local_unwind2            100117c5 f   libvcruntime:_exsup_.obj
 0001:00010849       __abnormal_termination     10011849 f   libvcruntime:_exsup_.obj
 0001:0001086c       __NLG_Notify1              1001186c f   libvcruntime:_exsup_.obj
 0001:00010875       __NLG_Notify               10011875 f   libvcruntime:_exsup_.obj
 0001:0001088c       __NLG_Dispatch             1001188c     libvcruntime:_exsup_.obj
 0001:0001088c       __NLG_Dispatch2            1001188c     libvcruntime:_exsup_.obj
 0001:00010894       __NLG_Call                 10011894 f   libvcruntime:_exsup_.obj
 0001:00010896       __NLG_Return2              10011896     libvcruntime:_exsup_.obj
 0001:00010897       _calloc                    10011897 f   libucrt:calloc.obj
 0001:000108a2       ??$__crt_time_elapsed_leap_years@_J@@YA_J_J@Z 100118a2 f i libucrt:mktime.obj
 0001:00010908       ??$__crt_time_is_leap_year@_J@@YA_N_J@Z 10011908 f i libucrt:mktime.obj
 0001:00010d9a       __mktime64                 10011d9a f   libucrt:mktime.obj
 0001:00010dad       _free                      10011dad f   libucrt:free.obj
 0001:00011416       ??$ftprintf@PAU_iobuf@@PB_WABQB_WABQB_WABI@?$__crt_char_traits@_W@@SAH$$QAPAU_iobuf@@$$QAPB_WABQB_W2ABI@Z 10012416 f i libucrt:assert.obj
 0001:000114f5       __vfwprintf_l              100124f5 f i libucrt:assert.obj
 0001:0001151a       __vswprintf_c_l            1001251a f i libucrt:assert.obj
 0001:00011549       __wassert                  10012549 f   libucrt:assert.obj
 0001:00011591       _fwprintf                  10012591 f i libucrt:assert.obj
 0001:000115ac       _swprintf                  100125ac f i libucrt:assert.obj
 0001:000115ca       _malloc                    100125ca f   libucrt:malloc.obj
 0001:0001171f       ??0_LocaleUpdate@@QAE@QAU__crt_locale_pointers@@@Z 1001271f f i libucrt:tolower_toupper.obj
 0001:000117bf       __chvalidchk_l             100127bf f i libucrt:tolower_toupper.obj
 0001:000117e9       __ischartype_l             100127e9 f i libucrt:tolower_toupper.obj
 0001:0001181c       __tolower_l                1001281c f   libucrt:tolower_toupper.obj
 0001:00011836       _tolower                   10012836 f   libucrt:tolower_toupper.obj
 0001:00011866       __isdigit_l                10012866 f i libucrt:_ctype.obj
 0001:0001189e       __isspace_l                1001289e f i libucrt:_ctype.obj
 0001:000118d6       _isdigit                   100128d6 f i libucrt:_ctype.obj
 0001:00011903       _isspace                   10012903 f i libucrt:_ctype.obj
 0001:00011930       ___ascii_stricmp           10012930 f   libucrt:stricmp.obj
 0001:0001196b       __stricmp                  1001296b f   libucrt:stricmp.obj
 0001:000119b3       __stricmp_l                100129b3 f   libucrt:stricmp.obj
 0001:00011a4d       ___acrt_initialize_new_handler 10012a4d f   libucrt:new_handler.obj
 0001:00011a61       __callnewh                 10012a61 f   libucrt:new_handler.obj
 0001:00011aa5       __query_new_handler        10012aa5 f   libucrt:new_handler.obj
 0001:00011af7       __seh_filter_dll           10012af7 f   libucrt:exception_filter.obj
 0001:00011b17       __seh_filter_exe           10012b17 f   libucrt:exception_filter.obj
 0001:00011ea5       ___acrt_initialize_thread_local_exit_callback 10012ea5 f   libucrt:exit.obj
 0001:00011eb4       __cexit                    10012eb4 f   libucrt:exit.obj
 0001:00011ec3       __exit                     10012ec3 f   libucrt:exit.obj
 0001:00011ed9       __is_c_termination_complete 10012ed9 f   libucrt:exit.obj
 0001:000120e6       ??$uninitialize@A6AXAAPAPAD@Z@?$dual_state_global@PAPAD@__crt_state_management@@QAEXA6AXAAPAPAD@Z@Z 100130e6 f i libucrt:environment_initialization.obj
 0001:000120e6       ??$uninitialize@A6AXAAPAPA_W@Z@?$dual_state_global@PAPA_W@__crt_state_management@@QAEXA6AXAAPAPA_W@Z@Z 100130e6 f i libucrt:environment_initialization.obj
 0001:0001215c       ___dcrt_get_or_create_narrow_environment_nolock 1001315c f   libucrt:environment_initialization.obj
 0001:00012161       ___dcrt_uninitialize_environments_nolock 10013161 f   libucrt:environment_initialization.obj
 0001:00012198       __initialize_narrow_environment 10013198 f   libucrt:environment_initialization.obj
 0001:0001219d       ??$?RV<lambda_800076c951b434888f4765a74a194fcc>@@AAV<lambda_4e60a939b0d047cfe11ddc22648dfba9>@@V<lambda_6dbb1268764f43b569ce7b67e331d33a>@@@?$__crt_seh_guarded_call@H@@QAEH$$QAV<lambda_800076c951b434888f4765a74a194fcc>@@AAV<lambda_4e60a939b0d047cfe11ddc22648dfba9>@@$$QAV<lambda_6dbb1268764f43b569ce7b67e331d33a>@@@Z 1001319d f i libucrt:onexit.obj
 0001:000121ee       ??$?RV<lambda_995298e7d72eb4c2aab26c0585b3abe5>@@AAV<lambda_275893d493268fdec8709772e3fcec0e>@@V<lambda_293819299cbf9a7022e18b56a874bb5c>@@@?$__crt_seh_guarded_call@H@@QAEH$$QAV<lambda_995298e7d72eb4c2aab26c0585b3abe5>@@AAV<lambda_275893d493268fdec8709772e3fcec0e>@@$$QAV<lambda_293819299cbf9a7022e18b56a874bb5c>@@@Z 100131ee f i libucrt:onexit.obj
 0001:0001223f       ??$__acrt_lock_and_call@V<lambda_275893d493268fdec8709772e3fcec0e>@@@@YAHW4__acrt_lock_id@@$$QAV<lambda_275893d493268fdec8709772e3fcec0e>@@@Z 1001323f f i libucrt:onexit.obj
 0001:00012267       ??$__acrt_lock_and_call@V<lambda_4e60a939b0d047cfe11ddc22648dfba9>@@@@YAHW4__acrt_lock_id@@$$QAV<lambda_4e60a939b0d047cfe11ddc22648dfba9>@@@Z 10013267 f i libucrt:onexit.obj
 0001:0001228f       ??$__crt_fast_encode_pointer@P6AHXZ@@YAP6AHXZQ6AHXZ@Z 1001328f f i libucrt:onexit.obj
 0001:0001250f       __crt_atexit               1001350f f   libucrt:onexit.obj
 0001:00012525       __execute_onexit_table     10013525 f   libucrt:onexit.obj
 0001:00012542       __initialize_onexit_table  10013542 f   libucrt:onexit.obj
 0001:0001257f       __register_onexit_function 1001357f f   libucrt:onexit.obj
 0001:00012694       ___acrt_initialize         10013694 f   libucrt:initialization.obj
 0001:000126a6       ___acrt_thread_attach      100136a6 f   libucrt:initialization.obj
 0001:000126b1       ___acrt_thread_detach      100136b1 f   libucrt:initialization.obj
 0001:000126b9       ___acrt_uninitialize       100136b9 f   libucrt:initialization.obj
 0001:000126cb       ___acrt_uninitialize_critical 100136cb f   libucrt:initialization.obj
 0001:000126dd       __initterm                 100136dd f   libucrt:initterm.obj
 0001:00012739       __initterm_e               10013739 f   libucrt:initterm.obj
 0001:0001277e       _terminate                 1001377e f   libucrt:terminate.obj
 0001:000127ba       _abort                     100137ba f   libucrt:abort.obj
 0001:000127fd       _strcpy_s                  100137fd f   libucrt:strcpy_s.obj
 0001:00012857       __free_base                10013857 f   libucrt:free_base.obj
 0001:00012891       __malloc_base              10013891 f   libucrt:malloc_base.obj
 0001:000128df       __calloc_base              100138df f   libucrt:calloc_base.obj
 0001:0001293c       ??$?RV<lambda_ab9923ffb5d694ec0d78876dd103e44f>@@AAV<lambda_481dd5778c961fbcd3b60b650e9b9dc4>@@V<lambda_7923d86c9e3f319b415918ec4b39749c>@@@?$__crt_seh_guarded_call@H@@QAEH$$QAV<lambda_ab9923ffb5d694ec0d78876dd103e44f>@@AAV<lambda_481dd5778c961fbcd3b60b650e9b9dc4>@@$$QAV<lambda_7923d86c9e3f319b415918ec4b39749c>@@@Z 1001393c f i libucrt:output.obj
 0001:0001298d       ??$__acrt_lock_stream_and_call@V<lambda_481dd5778c961fbcd3b60b650e9b9dc4>@@@@YAHQAU_iobuf@@$$QAV<lambda_481dd5778c961fbcd3b60b650e9b9dc4>@@@Z 1001398d f i libucrt:output.obj
 0001:00012b3a       ??$count@D@formatting_buffer@__crt_stdio_output@@QBEIXZ 10013b3a f i libucrt:output.obj
 0001:00012b52       ??$ensure_buffer_is_big_enough@D@formatting_buffer@__crt_stdio_output@@QAE_NI@Z 10013b52 f i libucrt:output.obj
 0001:00012bd8       ??$is_wide_character_specifier@_W@__crt_stdio_output@@YA_N_K_WW4length_modifier@0@@Z 10013bd8 f i libucrt:output.obj
 0001:00012c27       ??$scratch_data@D@formatting_buffer@__crt_stdio_output@@QAEPADXZ 10013c27 f i libucrt:output.obj
 0001:00012c45       ??$type_case_integer_parse_into_buffer@I@?$output_processor@_WV?$string_output_adapter@_W@__crt_stdio_output@@V?$standard_base@_WV?$string_output_adapter@_W@__crt_stdio_output@@@2@@__crt_stdio_output@@AAEXII_N@Z 10013c45 f i libucrt:output.obj
 0001:00012c45       ??$type_case_integer_parse_into_buffer@I@?$output_processor@_WV?$stream_output_adapter@_W@__crt_stdio_output@@V?$standard_base@_WV?$stream_output_adapter@_W@__crt_stdio_output@@@2@@__crt_stdio_output@@AAEXII_N@Z 10013c45 f i libucrt:output.obj
 0001:00012cba       ??$type_case_integer_parse_into_buffer@_K@?$output_processor@_WV?$stream_output_adapter@_W@__crt_stdio_output@@V?$standard_base@_WV?$stream_output_adapter@_W@__crt_stdio_output@@@2@@__crt_stdio_output@@AAEX_KI_N@Z 10013cba f i libucrt:output.obj
 0001:00012cba       ??$type_case_integer_parse_into_buffer@_K@?$output_processor@_WV?$string_output_adapter@_W@__crt_stdio_output@@V?$standard_base@_WV?$string_output_adapter@_W@__crt_stdio_output@@@2@@__crt_stdio_output@@AAEX_KI_N@Z 10013cba f i libucrt:output.obj
 0001:00012d42       ??$write_multiple_characters@V?$stream_output_adapter@_W@__crt_stdio_output@@D@__crt_stdio_output@@YAXABV?$stream_output_adapter@_W@0@DHQAH@Z 10013d42 f i libucrt:output.obj
 0001:00012d73       ??$write_multiple_characters@V?$string_output_adapter@_W@__crt_stdio_output@@D@__crt_stdio_output@@YAXABV?$string_output_adapter@_W@0@DHQAH@Z 10013d73 f i libucrt:output.obj
 0001:00012da4       ??0?$common_data@_W@__crt_stdio_output@@IAE@XZ 10013da4 f i libucrt:output.obj
 0001:00012df0       ??0?$output_adapter_data@_WV?$stream_output_adapter@_W@__crt_stdio_output@@@__crt_stdio_output@@IAE@ABV?$stream_output_adapter@_W@1@_KQB_WQAU__crt_locale_pointers@@QAD@Z 10013df0 f i libucrt:output.obj
 0001:00012df0       ??0?$output_adapter_data@_WV?$string_output_adapter@_W@__crt_stdio_output@@@__crt_stdio_output@@IAE@ABV?$string_output_adapter@_W@1@_KQB_WQAU__crt_locale_pointers@@QAD@Z 10013df0 f i libucrt:output.obj
 0001:00012e2c       ??0?$output_processor@_WV?$stream_output_adapter@_W@__crt_stdio_output@@V?$standard_base@_WV?$stream_output_adapter@_W@__crt_stdio_output@@@2@@__crt_stdio_output@@QAE@ABV?$stream_output_adapter@_W@1@_KQB_WQAU__crt_locale_pointers@@QAD@Z 10013e2c f i libucrt:output.obj
 0001:00012e2c       ??0?$output_processor@_WV?$string_output_adapter@_W@__crt_stdio_output@@V?$standard_base@_WV?$string_output_adapter@_W@__crt_stdio_output@@@2@@__crt_stdio_output@@QAE@ABV?$string_output_adapter@_W@1@_KQB_WQAU__crt_locale_pointers@@QAD@Z 10013e2c f i libucrt:output.obj
 0001:00012e61       ??1formatting_buffer@__crt_stdio_output@@QAE@XZ 10013e61 f i libucrt:output.obj
 0001:00012e7b       ??4?$__crt_unique_heap_ptr@DU__crt_internal_free_policy@@@@QAEAAV0@$$QAV0@@Z 10013e7b f i libucrt:output.obj
 0001:00012f5c       ?crop_zeroes@__crt_stdio_output@@YAXPADQAU__crt_locale_pointers@@@Z 10013f5c f i libucrt:output.obj
 0001:00012fb3       ?find_next_state@?$output_processor@_WV?$string_output_adapter@_W@__crt_stdio_output@@V?$standard_base@_WV?$string_output_adapter@_W@__crt_stdio_output@@@2@@__crt_stdio_output@@ABE?AW4state@2@_WW432@@Z 10013fb3 f i libucrt:output.obj
 0001:00012fb3       ?find_next_state@?$output_processor@_WV?$stream_output_adapter@_W@__crt_stdio_output@@V?$standard_base@_WV?$stream_output_adapter@_W@__crt_stdio_output@@@2@@__crt_stdio_output@@ABE?AW4state@2@_WW432@@Z 10013fb3 f i libucrt:output.obj
 0001:00012fe7       ?force_decimal_point@__crt_stdio_output@@YAXPADQAU__crt_locale_pointers@@@Z 10013fe7 f i libucrt:output.obj
 0001:00013043       ?parse_int_from_format_string@?$output_processor@_WV?$stream_output_adapter@_W@__crt_stdio_output@@V?$standard_base@_WV?$stream_output_adapter@_W@__crt_stdio_output@@@2@@__crt_stdio_output@@AAE_NQAH@Z 10014043 f i libucrt:output.obj
 0001:00013043       ?parse_int_from_format_string@?$output_processor@_WV?$string_output_adapter@_W@__crt_stdio_output@@V?$standard_base@_WV?$string_output_adapter@_W@__crt_stdio_output@@@2@@__crt_stdio_output@@AAE_NQAH@Z 10014043 f i libucrt:output.obj
 0001:000130a1       ?process@?$output_processor@_WV?$stream_output_adapter@_W@__crt_stdio_output@@V?$standard_base@_WV?$stream_output_adapter@_W@__crt_stdio_output@@@2@@__crt_stdio_output@@QAEHXZ 100140a1 f i libucrt:output.obj
 0001:000131c1       ?process@?$output_processor@_WV?$string_output_adapter@_W@__crt_stdio_output@@V?$standard_base@_WV?$string_output_adapter@_W@__crt_stdio_output@@@2@@__crt_stdio_output@@QAEHXZ 100141c1 f i libucrt:output.obj
 0001:000132e1       ?state_case_flag@?$output_processor@_WV?$stream_output_adapter@_W@__crt_stdio_output@@V?$standard_base@_WV?$stream_output_adapter@_W@__crt_stdio_output@@@2@@__crt_stdio_output@@AAE_NXZ 100142e1 f i libucrt:output.obj
 0001:000132e1       ?state_case_flag@?$output_processor@_WV?$string_output_adapter@_W@__crt_stdio_output@@V?$standard_base@_WV?$string_output_adapter@_W@__crt_stdio_output@@@2@@__crt_stdio_output@@AAE_NXZ 100142e1 f i libucrt:output.obj
 0001:0001331e       ?state_case_normal@?$output_processor@_WV?$stream_output_adapter@_W@__crt_stdio_output@@V?$standard_base@_WV?$stream_output_adapter@_W@__crt_stdio_output@@@2@@__crt_stdio_output@@AAE_NXZ 1001431e f i libucrt:output.obj
 0001:0001333d       ?state_case_normal@?$output_processor@_WV?$string_output_adapter@_W@__crt_stdio_output@@V?$standard_base@_WV?$string_output_adapter@_W@__crt_stdio_output@@@2@@__crt_stdio_output@@AAE_NXZ 1001433d f i libucrt:output.obj
 0001:0001335c       ?state_case_normal_common@?$output_processor@_WV?$stream_output_adapter@_W@__crt_stdio_output@@V?$standard_base@_WV?$stream_output_adapter@_W@__crt_stdio_output@@@2@@__crt_stdio_output@@AAE_NXZ 1001435c f i libucrt:output.obj
 0001:00013377       ?state_case_normal_common@?$output_processor@_WV?$string_output_adapter@_W@__crt_stdio_output@@V?$standard_base@_WV?$string_output_adapter@_W@__crt_stdio_output@@@2@@__crt_stdio_output@@AAE_NXZ 10014377 f i libucrt:output.obj
 0001:00013392       ?state_case_precision@?$output_processor@_WV?$string_output_adapter@_W@__crt_stdio_output@@V?$standard_base@_WV?$string_output_adapter@_W@__crt_stdio_output@@@2@@__crt_stdio_output@@AAE_NXZ 10014392 f i libucrt:output.obj
 0001:00013392       ?state_case_precision@?$output_processor@_WV?$stream_output_adapter@_W@__crt_stdio_output@@V?$standard_base@_WV?$stream_output_adapter@_W@__crt_stdio_output@@@2@@__crt_stdio_output@@AAE_NXZ 10014392 f i libucrt:output.obj
 0001:000133bb       ?state_case_size@?$output_processor@_WV?$stream_output_adapter@_W@__crt_stdio_output@@V?$standard_base@_WV?$stream_output_adapter@_W@__crt_stdio_output@@@2@@__crt_stdio_output@@AAE_NXZ 100143bb f i libucrt:output.obj
 0001:00013537       ?state_case_size@?$output_processor@_WV?$string_output_adapter@_W@__crt_stdio_output@@V?$standard_base@_WV?$string_output_adapter@_W@__crt_stdio_output@@@2@@__crt_stdio_output@@AAE_NXZ 10014537 f i libucrt:output.obj
 0001:000136b3       ?state_case_type@?$output_processor@_WV?$stream_output_adapter@_W@__crt_stdio_output@@V?$standard_base@_WV?$stream_output_adapter@_W@__crt_stdio_output@@@2@@__crt_stdio_output@@AAE_NXZ 100146b3 f i libucrt:output.obj
 0001:00013910       ?state_case_type@?$output_processor@_WV?$string_output_adapter@_W@__crt_stdio_output@@V?$standard_base@_WV?$string_output_adapter@_W@__crt_stdio_output@@@2@@__crt_stdio_output@@AAE_NXZ 10014910 f i libucrt:output.obj
 0001:00013b6d       ?state_case_width@?$output_processor@_WV?$stream_output_adapter@_W@__crt_stdio_output@@V?$standard_base@_WV?$stream_output_adapter@_W@__crt_stdio_output@@@2@@__crt_stdio_output@@AAE_NXZ 10014b6d f i libucrt:output.obj
 0001:00013b6d       ?state_case_width@?$output_processor@_WV?$string_output_adapter@_W@__crt_stdio_output@@V?$standard_base@_WV?$string_output_adapter@_W@__crt_stdio_output@@@2@@__crt_stdio_output@@AAE_NXZ 10014b6d f i libucrt:output.obj
 0001:00013b99       ?to_integer_size@__crt_stdio_output@@YAIW4length_modifier@1@@Z 10014b99 f i libucrt:output.obj
 0001:00013bf5       ?type_case_Z@?$output_processor@_WV?$string_output_adapter@_W@__crt_stdio_output@@V?$standard_base@_WV?$string_output_adapter@_W@__crt_stdio_output@@@2@@__crt_stdio_output@@AAE_NXZ 10014bf5 f i libucrt:output.obj
 0001:00013bf5       ?type_case_Z@?$output_processor@_WV?$stream_output_adapter@_W@__crt_stdio_output@@V?$standard_base@_WV?$stream_output_adapter@_W@__crt_stdio_output@@@2@@__crt_stdio_output@@AAE_NXZ 10014bf5 f i libucrt:output.obj
 0001:00013c58       ?type_case_a@?$output_processor@_WV?$stream_output_adapter@_W@__crt_stdio_output@@V?$standard_base@_WV?$stream_output_adapter@_W@__crt_stdio_output@@@2@@__crt_stdio_output@@AAE_NXZ 10014c58 f i libucrt:output.obj
 0001:00013c58       ?type_case_a@?$output_processor@_WV?$string_output_adapter@_W@__crt_stdio_output@@V?$standard_base@_WV?$string_output_adapter@_W@__crt_stdio_output@@@2@@__crt_stdio_output@@AAE_NXZ 10014c58 f i libucrt:output.obj
 0001:00013dca       ?type_case_c_tchar@?$output_processor@_WV?$string_output_adapter@_W@__crt_stdio_output@@V?$standard_base@_WV?$string_output_adapter@_W@__crt_stdio_output@@@2@@__crt_stdio_output@@AAE_N_W@Z 10014dca f i libucrt:output.obj
 0001:00013dca       ?type_case_c_tchar@?$output_processor@_WV?$stream_output_adapter@_W@__crt_stdio_output@@V?$standard_base@_WV?$stream_output_adapter@_W@__crt_stdio_output@@@2@@__crt_stdio_output@@AAE_N_W@Z 10014dca f i libucrt:output.obj
 0001:00013e62       ?type_case_integer@?$output_processor@_WV?$stream_output_adapter@_W@__crt_stdio_output@@V?$standard_base@_WV?$stream_output_adapter@_W@__crt_stdio_output@@@2@@__crt_stdio_output@@AAE_NI_N@Z 10014e62 f i libucrt:output.obj
 0001:00013e62       ?type_case_integer@?$output_processor@_WV?$string_output_adapter@_W@__crt_stdio_output@@V?$standard_base@_WV?$string_output_adapter@_W@__crt_stdio_output@@@2@@__crt_stdio_output@@AAE_NI_N@Z 10014e62 f i libucrt:output.obj
 0001:00013fac       ?type_case_n@?$output_processor@_WV?$string_output_adapter@_W@__crt_stdio_output@@V?$standard_base@_WV?$string_output_adapter@_W@__crt_stdio_output@@@2@@__crt_stdio_output@@AAE_NXZ 10014fac f i libucrt:output.obj
 0001:00013fac       ?type_case_n@?$output_processor@_WV?$stream_output_adapter@_W@__crt_stdio_output@@V?$standard_base@_WV?$stream_output_adapter@_W@__crt_stdio_output@@@2@@__crt_stdio_output@@AAE_NXZ 10014fac f i libucrt:output.obj
 0001:00014020       ?type_case_o@?$output_processor@_WV?$string_output_adapter@_W@__crt_stdio_output@@V?$standard_base@_WV?$string_output_adapter@_W@__crt_stdio_output@@@2@@__crt_stdio_output@@AAE_NXZ 10015020 f i libucrt:output.obj
 0001:00014020       ?type_case_o@?$output_processor@_WV?$stream_output_adapter@_W@__crt_stdio_output@@V?$standard_base@_WV?$stream_output_adapter@_W@__crt_stdio_output@@@2@@__crt_stdio_output@@AAE_NXZ 10015020 f i libucrt:output.obj
 0001:0001403f       ?type_case_p@?$output_processor@_WV?$string_output_adapter@_W@__crt_stdio_output@@V?$standard_base@_WV?$string_output_adapter@_W@__crt_stdio_output@@@2@@__crt_stdio_output@@AAE_NXZ 1001503f f i libucrt:output.obj
 0001:0001403f       ?type_case_p@?$output_processor@_WV?$stream_output_adapter@_W@__crt_stdio_output@@V?$standard_base@_WV?$stream_output_adapter@_W@__crt_stdio_output@@@2@@__crt_stdio_output@@AAE_NXZ 1001503f f i libucrt:output.obj
 0001:00014057       ?type_case_s@?$output_processor@_WV?$stream_output_adapter@_W@__crt_stdio_output@@V?$standard_base@_WV?$stream_output_adapter@_W@__crt_stdio_output@@@2@@__crt_stdio_output@@AAE_NXZ 10015057 f i libucrt:output.obj
 0001:00014057       ?type_case_s@?$output_processor@_WV?$string_output_adapter@_W@__crt_stdio_output@@V?$standard_base@_WV?$string_output_adapter@_W@__crt_stdio_output@@@2@@__crt_stdio_output@@AAE_NXZ 10015057 f i libucrt:output.obj
 0001:000140cb       ?type_case_s_compute_narrow_string_length@?$output_processor@_WV?$stream_output_adapter@_W@__crt_stdio_output@@V?$standard_base@_WV?$stream_output_adapter@_W@__crt_stdio_output@@@2@@__crt_stdio_output@@ABEHH_W@Z 100150cb f i libucrt:output.obj
 0001:000140cb       ?type_case_s_compute_narrow_string_length@?$output_processor@_WV?$string_output_adapter@_W@__crt_stdio_output@@V?$standard_base@_WV?$string_output_adapter@_W@__crt_stdio_output@@@2@@__crt_stdio_output@@ABEHH_W@Z 100150cb f i libucrt:output.obj
 0001:0001410b       ?write_character@?$stream_output_adapter@_W@__crt_stdio_output@@QBEX_WQAH@Z 1001510b f i libucrt:output.obj
 0001:0001414b       ?write_character@?$string_output_adapter@_W@__crt_stdio_output@@QBE_N_WQAH@Z 1001514b f i libucrt:output.obj
 0001:00014190       ?write_stored_string_tchar@?$output_processor@_WV?$stream_output_adapter@_W@__crt_stdio_output@@V?$standard_base@_WV?$stream_output_adapter@_W@__crt_stdio_output@@@2@@__crt_stdio_output@@AAE_N_W@Z 10015190 f i libucrt:output.obj
 0001:0001421b       ?write_stored_string_tchar@?$output_processor@_WV?$string_output_adapter@_W@__crt_stdio_output@@V?$standard_base@_WV?$string_output_adapter@_W@__crt_stdio_output@@@2@@__crt_stdio_output@@AAE_N_W@Z 1001521b f i libucrt:output.obj
 0001:000142a6       ?write_string@?$stream_output_adapter@_W@__crt_stdio_output@@QBEXQB_WHQAH1@Z 100152a6 f i libucrt:output.obj
 0001:00014333       ?write_string@?$string_output_adapter@_W@__crt_stdio_output@@QBEXQB_WHQAH1@Z 10015333 f i libucrt:output.obj
 0001:000143cd       ___stdio_common_vfwprintf  100153cd f   libucrt:output.obj
 0001:00014444       ___stdio_common_vswprintf  10015444 f   libucrt:output.obj
 0001:00014468       ??$is_overflow_condition@K@__crt_strtox@@YA_NIK@Z 10015468 f i libucrt:atox.obj
 0001:0001449b       ??$make_c_string_character_source@D$$T@__crt_strtox@@YA?AV?$c_string_character_source@D@0@QBD$$T@Z 1001549b f i libucrt:atox.obj
 0001:0001449b       ??$make_c_string_character_source@_WPAPA_W@__crt_strtox@@YA?AV?$c_string_character_source@_W@0@QB_WQAPA_W@Z 1001549b f i libucrt:strtox.obj
 0001:000144b6       ??$parse_integer@KV?$c_string_character_source@D@__crt_strtox@@@__crt_strtox@@YAKQAU__crt_locale_pointers@@V?$c_string_character_source@D@0@H_N@Z 100154b6 f i libucrt:atox.obj
 0001:000146de       ??$parse_integer@KV?$c_string_character_source@_W@__crt_strtox@@@__crt_strtox@@YAKQAU__crt_locale_pointers@@V?$c_string_character_source@_W@0@H_N@Z 100156de f i libucrt:atox.obj
 0001:00014dc3       ?unget@?$c_string_character_source@D@__crt_strtox@@QAEXD@Z 10015dc3 f i libucrt:atox.obj
 0001:00014deb       ?unget@?$c_string_character_source@_W@__crt_strtox@@QAEX_W@Z 10015deb f i libucrt:atox.obj
 0001:00014e17       ?validate@?$string_output_adapter@_W@__crt_stdio_output@@QBE_NXZ 10015e17 f i libucrt:output.obj
 0001:00014e17       ?validate@?$c_string_character_source@_W@__crt_strtox@@QBE_NXZ 10015e17 f i libucrt:atox.obj
 0001:00014e17       ?validate@?$stream_output_adapter@_W@__crt_stdio_output@@QBE_NXZ 10015e17 f i libucrt:output.obj
 0001:00014e17       ?validate@?$c_string_character_source@D@__crt_strtox@@QBE_NXZ 10015e17 f i libucrt:atox.obj
 0001:00014e32       _atol                      10015e32 f   libucrt:atox.obj
 0001:00014e5c       ___acrt_call_reportfault   10015e5c f   libucrt:invalid_parameter.obj
 0001:00014f97       ___acrt_initialize_invalid_parameter_handler 10015f97 f   libucrt:invalid_parameter.obj
 0001:00014fac       __invalid_parameter        10015fac f   libucrt:invalid_parameter.obj
 0001:00015027       __invalid_parameter_noinfo 10016027 f   libucrt:invalid_parameter.obj
 0001:00015037       __invoke_watson            10016037 f   libucrt:invalid_parameter.obj
 0001:0001506a       ___acrt_errno_from_os_error 1001606a f   libucrt:errno.obj
 0001:000150ad       ___acrt_errno_map_os_error 100160ad f   libucrt:errno.obj
 0001:000150d0       ___doserrno                100160d0 f   libucrt:errno.obj
 0001:000150e3       __errno                    100160e3 f   libucrt:errno.obj
 0001:000150f6       ?initialize@?$dual_state_global@PAU__crt_locale_data@@@__crt_state_management@@QAEXQAU__crt_locale_data@@@Z 100160f6 f i libucrt:initialization.obj
 0001:000150f6       ?initialize@?$dual_state_global@J@__crt_state_management@@QAEXJ@Z 100160f6 f i libucrt:timeset.obj
 0001:000150f6       ?initialize@?$dual_state_global@P6AXH@Z@__crt_state_management@@QAEXQ6AXH@Z@Z 100160f6 f i libucrt:signal.obj
 0001:000150f6       ?initialize@?$dual_state_global@H@__crt_state_management@@QAEXH@Z 100160f6 f i libucrt:timeset.obj
 0001:000150f6       ?initialize@?$dual_state_global@PAPAD@__crt_state_management@@QAEXQAPAD@Z 100160f6 f i libucrt:environment_initialization.obj
 0001:000150f6       ?initialize@?$dual_state_global@P6AHPAU_exception@@@Z@__crt_state_management@@QAEXQ6AHPAU_exception@@@Z@Z 100160f6 f i libucrt:matherr.obj
 0001:000150f6       ?initialize@?$dual_state_global@P6AXPB_W00II@Z@__crt_state_management@@QAEXQ6AXPB_W00II@Z@Z 100160f6 f i libucrt:invalid_parameter.obj
 0001:000150f6       ?initialize@?$dual_state_global@P6AHI@Z@__crt_state_management@@QAEXQ6AHI@Z@Z 100160f6 f i libucrt:new_handler.obj
 0001:00015127       ___acrt_initialize_timeset 10016127 f   libucrt:timeset.obj
 0001:0001515e       ___daylight                1001615e f   libucrt:timeset.obj
 0001:00015164       ___dstbias                 10016164 f   libucrt:timeset.obj
 0001:0001516a       ___timezone                1001616a f   libucrt:timeset.obj
 0001:00015170       ___tzname                  10016170 f   libucrt:timeset.obj
 0001:00015176       __get_daylight             10016176 f   libucrt:timeset.obj
 0001:000151a2       __get_dstbias              100161a2 f   libucrt:timeset.obj
 0001:000151ce       __get_timezone             100161ce f   libucrt:timeset.obj
 0001:000151fa       ??$__crt_time_elapsed_leap_years@H@@YAHH@Z 100161fa f i libucrt:gmtime.obj
 0001:00015234       ??$__crt_time_is_leap_year@H@@YA_NH@Z 10016234 f i libucrt:gmtime.obj
 0001:00015466       __gmtime64_s               10016466 f   libucrt:gmtime.obj
 0001:000156fb       __localtime64_s            100166fb f   libucrt:localtime.obj
 0001:00015e4d       ___tzset                   10016e4d f   libucrt:tzset.obj
 0001:00015e9e       __isindst                  10016e9e f   libucrt:tzset.obj
 0001:00015ee8       __query_app_type           10016ee8 f   libucrt:report_runtime_error.obj
 0001:00015fdb       __itow_s                   10016fdb f   libucrt:xtoa.obj
 0001:00016010       __set_error_mode           10017010 f   libucrt:set_error_mode.obj
 0001:0001604f       _wcscat_s                  1001704f f   libucrt:wcscat_s.obj
 0001:000160c4       _wcscpy_s                  100170c4 f   libucrt:wcscpy_s.obj
 0001:00016211       _wcsncat_s                 10017211 f   libucrt:wcsncat_s.obj
 0001:00016317       ___acrt_show_wide_message_box 10017317 f   libucrt:crtmbox.obj
 0001:00016322       ___acrt_initialize_stdio   10017322 f   libucrt:_file.obj
 0001:000163ea       ___acrt_iob_func           100173ea f   libucrt:_file.obj
 0001:000163fa       ___acrt_uninitialize_stdio 100173fa f   libucrt:_file.obj
 0001:00016446       __lock_file                10017446 f   libucrt:_file.obj
 0001:0001645a       __unlock_file              1001745a f   libucrt:_file.obj
 0001:0001646e       ___acrt_stdio_flush_nolock 1001746e f   libucrt:fflush.obj
 0001:000164d4       __fflush_nolock            100174d4 f   libucrt:fflush.obj
 0001:0001651b       __flushall                 1001751b f   libucrt:fflush.obj
 0001:000165fc       _fflush                    100175fc f   libucrt:fflush.obj
 0001:00016655       ??$?RV<lambda_d92cfe8357b99225085016881b624cb0>@@AAV<lambda_b721fa326cdb32351d23dfa67958c160>@@V<lambda_42d75b0848218ec137fa420c8ba9fdf9>@@@?$__crt_seh_guarded_call@H@@QAEH$$QAV<lambda_d92cfe8357b99225085016881b624cb0>@@AAV<lambda_b721fa326cdb32351d23dfa67958c160>@@$$QAV<lambda_42d75b0848218ec137fa420c8ba9fdf9>@@@Z 10017655 f i libucrt:setvbuf.obj
 0001:000166a6       ??$__acrt_lock_stream_and_call@V<lambda_b721fa326cdb32351d23dfa67958c160>@@@@YAHQAU_iobuf@@$$QAV<lambda_b721fa326cdb32351d23dfa67958c160>@@@Z 100176a6 f i libucrt:setvbuf.obj
 0001:0001679b       _setvbuf                   1001779b f   libucrt:setvbuf.obj
 0001:00016811       ??$?RV<lambda_a048d3beccc847880fc8490e18b82769>@@AAV<lambda_ec61778202f4f5fc7e7711acc23c3bca>@@V<lambda_f7496a158712204296dd6628a163878e>@@@?$__crt_seh_guarded_call@P6AXH@Z@@QAEP6AXH@Z$$QAV<lambda_a048d3beccc847880fc8490e18b82769>@@AAV<lambda_ec61778202f4f5fc7e7711acc23c3bca>@@$$QAV<lambda_f7496a158712204296dd6628a163878e>@@@Z 10017811 f i libucrt:signal.obj
 0001:0001686b       ??$__acrt_lock_and_call@V<lambda_ec61778202f4f5fc7e7711acc23c3bca>@@@@YAP6AXH@ZW4__acrt_lock_id@@$$QAV<lambda_ec61778202f4f5fc7e7711acc23c3bca>@@@Z 1001786b f i libucrt:signal.obj
 0001:000168fd       ___acrt_get_sigabrt_handler 100178fd f   libucrt:signal.obj
 0001:00016914       ___acrt_initialize_signal_handlers 10017914 f   libucrt:signal.obj
 0001:0001694f       ___fpecode                 1001794f f   libucrt:signal.obj
 0001:00016958       _raise                     10017958 f   libucrt:signal.obj
 0001:00016b60       ___pctype_func             10017b60 f   libucrt:ctype.obj
 0001:00016b86       __isleadbyte_l             10017b86 f i libucrt:_wctype.obj
 0001:00016bbf       __isctype_l                10017bbf f   libucrt:isctype.obj
 0001:00016eae       ___acrt_LCMapStringA       10017eae f   libucrt:lcmapstringa.obj
 0001:00016ef9       __freea_crt                10017ef9 f i libucrt:lcmapstringa.obj
 0001:00016f19       ??$?RV<lambda_3518db117f0e7cdb002338c5d3c47b6c>@@AAV<lambda_b2ea41f6bbb362cd97d94c6828d90b61>@@V<lambda_abdedf541bb04549bc734292b4a045d4>@@@?$__crt_seh_guarded_call@X@@QAEX$$QAV<lambda_3518db117f0e7cdb002338c5d3c47b6c>@@AAV<lambda_b2ea41f6bbb362cd97d94c6828d90b61>@@$$QAV<lambda_abdedf541bb04549bc734292b4a045d4>@@@Z 10017f19 f i libucrt:per_thread_data.obj
 0001:00016f69       ??$?RV<lambda_51b6e8b1eb166f2a3faf91f424b38130>@@AAV<lambda_6250bd4b2a391816dd638c3bf72b0bcb>@@V<lambda_0b5a4a3e68152e1d9b943535f5f47bed>@@@?$__crt_seh_guarded_call@X@@QAEX$$QAV<lambda_51b6e8b1eb166f2a3faf91f424b38130>@@AAV<lambda_6250bd4b2a391816dd638c3bf72b0bcb>@@$$QAV<lambda_0b5a4a3e68152e1d9b943535f5f47bed>@@@Z 10017f69 f i libucrt:per_thread_data.obj
 0001:00016fca       ??$?RV<lambda_5b71d36f03204c0beab531769a5b5694>@@AAV<lambda_be2b3da3f62db62e9dad5dc70221a656>@@V<lambda_8f9ce462984622f9bf76b59e2aaaf805>@@@?$__crt_seh_guarded_call@X@@QAEX$$QAV<lambda_5b71d36f03204c0beab531769a5b5694>@@AAV<lambda_be2b3da3f62db62e9dad5dc70221a656>@@$$QAV<lambda_8f9ce462984622f9bf76b59e2aaaf805>@@@Z 10017fca f i libucrt:per_thread_data.obj
 0001:00017015       ??$?RV<lambda_9df27f884b057bc3edfc946cb5b7cf47>@@AAV<lambda_e69574bed617af4e071282c136b37893>@@V<lambda_cc0d902bcbbeb830f749456577db4721>@@@?$__crt_seh_guarded_call@X@@QAEX$$QAV<lambda_9df27f884b057bc3edfc946cb5b7cf47>@@AAV<lambda_e69574bed617af4e071282c136b37893>@@$$QAV<lambda_cc0d902bcbbeb830f749456577db4721>@@@Z 10018015 f i libucrt:per_thread_data.obj
 0001:0001705d       ??$__acrt_lock_and_call@V<lambda_6250bd4b2a391816dd638c3bf72b0bcb>@@@@YAXW4__acrt_lock_id@@$$QAV<lambda_6250bd4b2a391816dd638c3bf72b0bcb>@@@Z 1001805d f i libucrt:per_thread_data.obj
 0001:00017085       ??$__acrt_lock_and_call@V<lambda_b2ea41f6bbb362cd97d94c6828d90b61>@@@@YAXW4__acrt_lock_id@@$$QAV<lambda_b2ea41f6bbb362cd97d94c6828d90b61>@@@Z 10018085 f i libucrt:per_thread_data.obj
 0001:000170ad       ??$__acrt_lock_and_call@V<lambda_be2b3da3f62db62e9dad5dc70221a656>@@@@YAXW4__acrt_lock_id@@$$QAV<lambda_be2b3da3f62db62e9dad5dc70221a656>@@@Z 100180ad f i libucrt:per_thread_data.obj
 0001:000170d5       ??$__acrt_lock_and_call@V<lambda_e69574bed617af4e071282c136b37893>@@@@YAXW4__acrt_lock_id@@$$QAV<lambda_e69574bed617af4e071282c136b37893>@@@Z 100180d5 f i libucrt:per_thread_data.obj
 0001:0001728b       ___acrt_freeptd            1001828b f   libucrt:per_thread_data.obj
 0001:000172b7       ___acrt_getptd             100182b7 f   libucrt:per_thread_data.obj
 0001:0001733b       ___acrt_getptd_noexit      1001833b f   libucrt:per_thread_data.obj
 0001:000173c0       ___acrt_initialize_ptd     100183c0 f   libucrt:per_thread_data.obj
 0001:000173ec       ___acrt_uninitialize_ptd   100183ec f   libucrt:per_thread_data.obj
 0001:00017406       ___acrt_update_locale_info 10018406 f   libucrt:locale_update.obj
 0001:00017433       ___acrt_update_multibyte_info 10018433 f   libucrt:locale_update.obj
 0001:00017460       ___acrt_set_locale_changed 10018460 f   libucrt:wsetlocale.obj
 0001:0001746b       ___acrt_uninitialize_locale 1001846b f   libucrt:wsetlocale.obj
 0001:000174bd       ___acrt_initialize_locks   100184bd f   libucrt:locks.obj
 0001:000174fe       ___acrt_lock               100184fe f   libucrt:locks.obj
 0001:00017515       ___acrt_uninitialize_locks 10018515 f   libucrt:locks.obj
 0001:00017546       ___acrt_unlock             10018546 f   libucrt:locks.obj
 0001:000176c2       ___acrt_CompareStringEx@36 100186c2 f   libucrt:winapi_thunks.obj
 0001:00017736       ___acrt_FlsAlloc@4         10018736 f   libucrt:winapi_thunks.obj
 0001:0001778c       ___acrt_FlsFree@4          1001878c f   libucrt:winapi_thunks.obj
 0001:000177e2       ___acrt_FlsGetValue@4      100187e2 f   libucrt:winapi_thunks.obj
 0001:00017838       ___acrt_FlsSetValue@8      10018838 f   libucrt:winapi_thunks.obj
 0001:00017891       ___acrt_InitializeCriticalSectionEx@12 10018891 f   libucrt:winapi_thunks.obj
 0001:000178f3       ___acrt_LCMapStringEx@36   100188f3 f   libucrt:winapi_thunks.obj
 0001:0001797b       ___acrt_LocaleNameToLCID@8 1001897b f   libucrt:winapi_thunks.obj
 0001:000179d7       ___acrt_MessageBoxW@16     100189d7 f   libucrt:winapi_thunks.obj
 0001:00017a20       ___acrt_can_show_message_box 10018a20 f   libucrt:winapi_thunks.obj
 0001:00017a39       ___acrt_get_parent_window  10018a39 f   libucrt:winapi_thunks.obj
 0001:00017ab8       ___acrt_initialize_winapi_thunks 10018ab8 f   libucrt:winapi_thunks.obj
 0001:00017ade       ___acrt_is_interactive     10018ade f   libucrt:winapi_thunks.obj
 0001:00017b84       ___acrt_is_packaged_app    10018b84 f   libucrt:winapi_thunks.obj
 0001:00017c0b       ___acrt_uninitialize_winapi_thunks 10018c0b f   libucrt:winapi_thunks.obj
 0001:00017c41       ??$?RV<lambda_978dc153c237d78434369da87b74ff60>@@AAV<lambda_ad1ced32f4ac17aa236e5ef05d6b3b7c>@@V<lambda_4a8533e2866a575feecb8298ce776b0d>@@@?$__crt_seh_guarded_call@X@@QAEX$$QAV<lambda_978dc153c237d78434369da87b74ff60>@@AAV<lambda_ad1ced32f4ac17aa236e5ef05d6b3b7c>@@$$QAV<lambda_4a8533e2866a575feecb8298ce776b0d>@@@Z 10018c41 f i libucrt:mbctype.obj
 0001:00017c84       ??$__acrt_lock_and_call@V<lambda_ad1ced32f4ac17aa236e5ef05d6b3b7c>@@@@YAXW4__acrt_lock_id@@$$QAV<lambda_ad1ced32f4ac17aa236e5ef05d6b3b7c>@@@Z 10018c84 f i libucrt:mbctype.obj
 0001:0001811b       ___acrt_initialize_multibyte 1001911b f   libucrt:mbctype.obj
 0001:00018139       ___acrt_update_thread_multibyte_data 10019139 f   libucrt:mbctype.obj
 0001:000181db       __setmbcp_nolock           100191db f   libucrt:mbctype.obj
 0001:00018403       ___dcrt_get_narrow_environment_from_os 10019403 f   libucrt:get_environment_from_os.obj
 0001:000187c6       ___dcrt_set_variable_in_narrow_environment_nolock 100197c6 f   libucrt:setenv.obj
 0001:000187d1       __recalloc                 100197d1 f   libucrt:recalloc.obj
 0001:000187dc       __recalloc_base            100197dc f   libucrt:recalloc.obj
 0001:00018849       ___acrt_initialize_heap    10019849 f   libucrt:heap_handle.obj
 0001:0001885a       ___acrt_uninitialize_heap  1001985a f   libucrt:heap_handle.obj
 0001:000189d0       ___acrt_initialize_lowio   100199d0 f   libucrt:ioinit.obj
 0001:00018a26       ___acrt_uninitialize_lowio 10019a26 f   libucrt:ioinit.obj
 0001:00018a52       ___acrt_initialize_command_line 10019a52 f   libucrt:argv_data.obj
 0001:00018a6b       ___acrt_uninitialize_command_line 10019a6b f   libucrt:argv_data.obj
 0001:00018a6e       ___acrt_execute_initializers 10019a6e f   libucrt:shared_initialization.obj
 0001:00018af1       ___acrt_execute_uninitializers 10019af1 f   libucrt:shared_initialization.obj
 0001:00018b3e       ___acrt_has_user_matherr   10019b3e f   libucrt:matherr.obj
 0001:00018b57       ___acrt_initialize_user_matherr 10019b57 f   libucrt:matherr.obj
 0001:00018b6b       ___acrt_invoke_user_matherr 10019b6b f   libucrt:matherr.obj
 0001:00018bb4       ___acrt_stdio_begin_temporary_buffering_nolock 10019bb4 f   libucrt:_sftbuf.obj
 0001:00018c69       ___acrt_stdio_end_temporary_buffering_nolock 10019c69 f   libucrt:_sftbuf.obj
 0001:00018ca2       __query_new_mode           10019ca2 f   libucrt:new_mode.obj
 0001:00018ca8       _wcstol                    10019ca8 f   libucrt:strtox.obj
 0001:00018cd4       __mbtowc_l                 10019cd4 f   libucrt:mbtowc.obj
 0001:00018dce       _mbtowc                    10019dce f   libucrt:mbtowc.obj
 0001:00018de8       __wctomb_s_l               10019de8 f   libucrt:wctomb.obj
 0001:00018f09       _wctomb_s                  10019f09 f   libucrt:wctomb.obj
 0001:00018f26       _wcsnlen                   10019f26 f   libucrt:strnlen.obj
 0001:000190dd       ?__acrt_fp_classify@@YA?AW4__acrt_fp_class@@ABN@Z 1001a0dd f i libucrt:cvt.obj
 0001:00019149       ?__acrt_fp_is_negative@@YA_NABN@Z 1001a149 f i libucrt:cvt.obj
 0001:000199a8       ___acrt_fp_format          1001a9a8 f   libucrt:cvt.obj
 0001:00019b24       __fputwc_nolock            1001ab24 f   libucrt:fputwc.obj
 0001:00019c4a       __fileno                   1001ac4a f   libucrt:fileno.obj
 0001:00019c70       __fputc_nolock             1001ac70 f   libucrt:fputc.obj
 0001:00019c99       __get_printf_count_output  1001ac99 f   libucrt:printf_count_output.obj
 0001:00019cae       _iswctype                  1001acae f   libucrt:iswctype.obj
 0001:00019e7a       _getenv_s                  1001ae7a f   libucrt:getenv.obj
 0001:00019f36       _strncpy_s                 1001af36 f   libucrt:strncpy_s.obj
 0001:00019f41       ____lc_codepage_func       1001af41 f   libucrt:initctype.obj
 0001:00019f68       __fcloseall                1001af68 f   libucrt:closeall.obj
 0001:0001a008       ___acrt_stdio_free_buffer_nolock 1001b008 f   libucrt:_freebuf.obj
 0001:0001a046       ??$?RV<lambda_61cee617f5178ae960314fd4d05640a0>@@AAV<lambda_6978c1fb23f02e42e1d9e99668cc68aa>@@V<lambda_9cd88cf8ad10232537feb2133f08c833>@@@?$__crt_seh_guarded_call@H@@QAEH$$QAV<lambda_61cee617f5178ae960314fd4d05640a0>@@AAV<lambda_6978c1fb23f02e42e1d9e99668cc68aa>@@$$QAV<lambda_9cd88cf8ad10232537feb2133f08c833>@@@Z 1001b046 f i libucrt:commit.obj
 0001:0001a0de       ??$__acrt_lowio_lock_fh_and_call@V<lambda_6978c1fb23f02e42e1d9e99668cc68aa>@@@@YAHH$$QAV<lambda_6978c1fb23f02e42e1d9e99668cc68aa>@@@Z 1001b0de f i libucrt:commit.obj
 0001:0001a106       __commit                   1001b106 f   libucrt:commit.obj
 0001:0001a705       __write                    1001b705 f   libucrt:write.obj
 0001:0001a7f0       __write_nolock             1001b7f0 f   libucrt:write.obj
 0001:0001a9fc       ___acrt_GetStringTypeA     1001b9fc f   libucrt:getstringtypea.obj
 0001:0001ab19       ___strncnt                 1001bb19 f   libucrt:strncnt.obj
 0001:0001ab35       ___acrt_add_locale_ref     1001bb35 f   libucrt:locale_refcounting.obj
 0001:0001abb2       ___acrt_free_locale        1001bbb2 f   libucrt:locale_refcounting.obj
 0001:0001acfc       ___acrt_locale_add_lc_time_reference 1001bcfc f   libucrt:locale_refcounting.obj
 0001:0001ad25       ___acrt_locale_free_lc_time_if_unreferenced 1001bd25 f   libucrt:locale_refcounting.obj
 0001:0001ad55       ___acrt_locale_release_lc_time_reference 1001bd55 f   libucrt:locale_refcounting.obj
 0001:0001ad7e       ___acrt_release_locale_ref 1001bd7e f   libucrt:locale_refcounting.obj
 0001:0001adff       ___acrt_update_thread_locale_data 1001bdff f   libucrt:locale_refcounting.obj
 0001:0001ae76       __updatetlocinfoEx_nolock  1001be76 f   libucrt:locale_refcounting.obj
 0001:0001aec6       ___acrt_locale_free_monetary 1001bec6 f   libucrt:initmon.obj
 0001:0001afc4       ___acrt_locale_free_numeric 1001bfc4 f   libucrt:initnum.obj
 0001:0001b069       ___acrt_locale_free_time   1001c069 f   libucrt:inittime.obj
 0001:0001b209       ___acrt_DownlevelLocaleNameToLCID 1001c209 f   libucrt:lcidtoname_downlevel.obj
 0001:0001b244       __strnicoll                1001c244 f   libucrt:strnicol.obj
 0001:0001b26d       __strnicoll_l              1001c26d f   libucrt:strnicol.obj
 0001:0001b337       __msize                    1001c337 f   libucrt:msize.obj
 0001:0001b36a       __realloc_base             1001c36a f   libucrt:realloc_base.obj
 0001:0001b3d3       ___acrt_lowio_create_handle_array 1001c3d3 f   libucrt:osfinfo.obj
 0001:0001b44d       ___acrt_lowio_destroy_handle_array 1001c44d f   libucrt:osfinfo.obj
 0001:0001b482       ___acrt_lowio_ensure_fh_exists 1001c482 f   libucrt:osfinfo.obj
 0001:0001b51a       ___acrt_lowio_lock_fh      1001c51a f   libucrt:osfinfo.obj
 0001:0001b53d       ___acrt_lowio_unlock_fh    1001c53d f   libucrt:osfinfo.obj
 0001:0001b560       __free_osfhnd              1001c560 f   libucrt:osfinfo.obj
 0001:0001b5f1       __get_osfhandle            1001c5f1 f   libucrt:osfinfo.obj
 0001:0001b65b       __isatty                   1001c65b f   libucrt:isatty.obj
 0001:0001b6b1       ___acrt_fp_strflt_to_string 1001c6b1 f   libucrt:_fptostr.obj
 0001:0001b76d       ??0scoped_fp_state_reset@?A0x48fbfdd4@@QAE@XZ 1001c76d f i libucrt:cfout.obj
 0001:0001b7a0       ?divide@__crt_strtox@@YA_KAAUbig_integer@1@ABU21@@Z 1001c7a0 f i libucrt:cfout.obj
 0001:0001bc4e       ___acrt_fltout             1001cc4e f   libucrt:cfout.obj
 0001:0001d431       ___acrt_stdio_flush_and_write_narrow_nolock 1001e431 f   libucrt:_flsbuf.obj
 0001:0001d43c       ___acrt_stdio_flush_and_write_wide_nolock 1001e43c f   libucrt:_flsbuf.obj
 0001:0001d447       __fclose_nolock            1001e447 f   libucrt:fclose.obj
 0001:0001d4bd       _fclose                    1001e4bd f   libucrt:fclose.obj
 0001:0001d6c0       __lseeki64                 1001e6c0 f   libucrt:lseek.obj
 0001:0001d6db       __lseeki64_nolock          1001e6db f   libucrt:lseek.obj
 0001:0001d6f6       __putwch_nolock            1001e6f6 f   libucrt:putwch.obj
 0001:0001d73b       __strnicmp                 1001e73b f   libucrt:strnicmp.obj
 0001:0001d7a7       __strnicmp_l               1001e7a7 f   libucrt:strnicmp.obj
 0001:0001db06       ___acrt_CompareStringA     1001eb06 f   libucrt:comparestringa.obj
 0001:0001db4e       _fegetenv                  1001eb4e f   libucrt:fegetenv.obj
 0001:0001db6b       _fesetenv                  1001eb6b f   libucrt:fesetenv.obj
 0001:0001dbb4       _feholdexcept              1001ebb4 f   libucrt:feholdexcept.obj
 0001:0001dc10       _log10                     1001ec10 f   libucrt:log10.obj
 0001:0001dc50       __CIlog10                  1001ec50 f   libucrt:log10.obj
 0001:0001dc8b       __CIlog10_default          1001ec8b f   libucrt:log10.obj
 0001:0001dc9f       __log10_default            1001ec9f     libucrt:log10.obj
 0001:0001dd60       _ceil                      1001ed60 f   libucrt:ceil_pentium4.obj
 0001:0001dda0       __ceil_pentium4            1001eda0 f   libucrt:ceil_pentium4.obj
 0001:0001de7d       ___acrt_stdio_allocate_buffer_nolock 1001ee7d f   libucrt:_getbuf.obj
 0001:0001deda       ??$?RV<lambda_123407a5e2ac06da108355a851863b7a>@@AAV<lambda_2fe9b910cf3cbf4a0ab98a02ba45b3ec>@@V<lambda_ae55bdf541ad94d75914d381c370e64d>@@@?$__crt_seh_guarded_call@H@@QAEH$$QAV<lambda_123407a5e2ac06da108355a851863b7a>@@AAV<lambda_2fe9b910cf3cbf4a0ab98a02ba45b3ec>@@$$QAV<lambda_ae55bdf541ad94d75914d381c370e64d>@@@Z 1001eeda f i libucrt:close.obj
 0001:0001df5c       ??$__acrt_lowio_lock_fh_and_call@V<lambda_2fe9b910cf3cbf4a0ab98a02ba45b3ec>@@@@YAHH$$QAV<lambda_2fe9b910cf3cbf4a0ab98a02ba45b3ec>@@@Z 1001ef5c f i libucrt:close.obj
 0001:0001df84       __close                    1001ef84 f   libucrt:close.obj
 0001:0001e003       __close_nolock             1001f003 f   libucrt:close.obj
 0001:0001e09f       ?__acrt_stdio_free_stream@@YAXV__crt_stdio_stream@@@Z 1001f09f f   libucrt:stream.obj
 0001:0001e0da       ___dcrt_lowio_initialize_console_output 1001f0da f   libucrt:initcon.obj
 0001:0001e0f9       ___dcrt_terminate_console_output 1001f0f9 f   libucrt:initcon.obj
 0001:0001e110       ___ascii_strnicmp          1001f110 f   libucrt:_strnicm.obj
 0001:0001e414       __getfpcontrolword         1001f414 f   libucrt:_fenvutils.obj
 0001:0001e457       __getfpstatusword          1001f457 f   libucrt:_fenvutils.obj
 0001:0001e4ff       __setfpcontrolword         1001f4ff f   libucrt:_fenvutils.obj
 0001:0001e57f       __setfpstatusword          1001f57f f   libucrt:_fenvutils.obj
 0001:0001e5ff       __clearfp                  1001f5ff f   libucrt:ieee87.obj
 0001:0001e6dd       ___acrt_initialize_sse2    1001f6dd f   libucrt:mathfcns.obj
 0001:0001e6f0       __CIlog10_pentium4         1001f6f0 f   libucrt:log10_pentium4.obj
 0001:0001e708       __log10_pentium4           1001f708     libucrt:log10_pentium4.obj
 0001:0001e991       __fFEXP                    1001f991     libucrt:87tran.obj
 0001:0001e9e8       __rtinfpopse               1001f9e8     libucrt:87tran.obj
 0001:0001e9ea       __rtinfnpopse              1001f9ea     libucrt:87tran.obj
 0001:0001e9fa       __fFLN                     1001f9fa     libucrt:87tran.obj
 0001:0001eaaf       __rtinfpop                 1001faaf     libucrt:87tran.obj
 0001:0001eab1       __rtinfnpop                1001fab1     libucrt:87tran.obj
 0001:0001eace       __ffexpm1                  1001face     libucrt:87tran.obj
 0001:0001eb80       __trandisp1                1001fb80 f   libucrt:87disp.obj
 0001:0001ebe7       __trandisp2                1001fbe7 f   libucrt:87disp.obj
 0001:0001ec73       __rttospopde               1001fc73     libucrt:87disp.obj
 0001:0001ec78       __rttospop                 1001fc78     libucrt:87disp.obj
 0001:0001ec7a       __rtnospop                 1001fc7a     libucrt:87disp.obj
 0001:0001ec7c       __rttosnpop                1001fc7c     libucrt:87disp.obj
 0001:0001ec7d       __rtnospopde               1001fc7d     libucrt:87disp.obj
 0001:0001ec84       __rtzeropop                1001fc84     libucrt:87disp.obj
 0001:0001ec86       __rtzeronpop               1001fc86     libucrt:87disp.obj
 0001:0001ec8b       __rtzerospop               1001fc8b     libucrt:87disp.obj
 0001:0001ec98       __rtonepop                 1001fc98     libucrt:87disp.obj
 0001:0001ec9a       __rtonenpop                1001fc9a     libucrt:87disp.obj
 0001:0001ec9f       __tosnan1                  1001fc9f     libucrt:87disp.obj
 0001:0001ecca       __nosnan2                  1001fcca     libucrt:87disp.obj
 0001:0001eccc       __tosnan2                  1001fccc     libucrt:87disp.obj
 0001:0001ecf4       __nan2                     1001fcf4     libucrt:87disp.obj
 0001:0001ed33       __rtindfpop                1001fd33     libucrt:87disp.obj
 0001:0001ed35       __rtindfnpop               1001fd35     libucrt:87disp.obj
 0001:0001ed46       __rttosnpopde              1001fd46     libucrt:87disp.obj
 0001:0001ed50       __rtatan2inf               1001fd50     libucrt:87disp.obj
 0001:0001ed6d       __rtchsifneg               1001fd6d     libucrt:87disp.obj
 0001:0001ed80       __twoToTOS                 1001fd80 f   libucrt:common.obj
 0001:0001ed95       __load_CW                  1001fd95 f   libucrt:common.obj
 0001:0001edac       __convertTOStoQNaN         1001fdac f   libucrt:common.obj
 0001:0001edc5       __fload_withFB             1001fdc5 f   libucrt:common.obj
 0001:0001ee08       __checkTOS_withFB          1001fe08 f   libucrt:common.obj
 0001:0001ee1e       __fast_exit                1001fe1e f   libucrt:common.obj
 0001:0001ee2b       __math_exit                1001fe2b f   libucrt:common.obj
 0001:0001ee55       __check_overflow_exit      1001fe55 f   libucrt:common.obj
 0001:0001ee69       __check_range_exit         1001fe69 f   libucrt:common.obj
 0001:0001ef10       __startTwoArgErrorHandling 1001ff10 f   libucrt:genexcep.obj
 0001:0001ef27       __startOneArgErrorHandling 1001ff27 f   libucrt:genexcep.obj
 0001:0001ef65       ___libm_error_support      1001ff65 f   libucrt:libm_error.obj
 0001:0001f17d       __ceil_default             1002017d f   libucrt:ceil.obj
 0001:0001f236       __clrfp                    10020236 f   libucrt:fpctrl.obj
 0001:0001f249       __ctrlfp                   10020249 f   libucrt:fpctrl.obj
 0001:0001f275       __set_statfp               10020275 f   libucrt:fpctrl.obj
 0001:0001f2d0       __statfp                   100202d0 f   libucrt:fpctrl.obj
 0001:0001f2e2       __d_inttype                100202e2 f   libucrt:powhlp.obj
 0001:0001f34c       __powhlp                   1002034c f   libucrt:powhlp.obj
 0001:0001f477       __87except                 10020477 f   libucrt:87except.obj
 0001:0001f582       __frnd                     10020582 f   libucrt:frnd.obj
 0001:0001f598       __errcode                  10020598 f   libucrt:fpexcept.obj
 0001:0001f5cc       __except1                  100205cc f   libucrt:fpexcept.obj
 0001:0001f69a       __handle_exc               1002069a f   libucrt:fpexcept.obj
 0001:0001f87a       __raise_exc                1002087a f   libucrt:fpexcept.obj
 0001:0001f89d       __raise_exc_ex             1002089d f   libucrt:fpexcept.obj
 0001:0001fb8e       __set_errno_from_matherr   10020b8e f   libucrt:fpexcept.obj
 0001:0001fbbd       __umatherr                 10020bbd f   libucrt:fpexcept.obj
 0001:0001fc5f       __decomp                   10020c5f f   libucrt:util.obj
 0001:0001fd33       __set_exp                  10020d33 f   libucrt:util.obj
 0001:0001fd62       __sptype                   10020d62 f   libucrt:util.obj
 0001:0001fdc0       __fpclass                  10020dc0 f   libucrt:ieeemisc.obj
 0001:0001fe64       _IsProcessorFeaturePresent@4 10020e64 f   kernel32:KERNEL32.dll
 0001:0001fe6a       _RtlUnwind@16              10020e6a f   kernel32:KERNEL32.dll
 0001:0001fe70       _SystemFunction036@8       10020e70 f   advapi32:ADVAPI32.dll
 0001:0001fe76       ?DloadAcquireSectionWriteAccess@@YGXXZ 10020e76 f i DelayImp:delayhlp.obj
 0001:0001fea9       ?DloadGetSRWLockFunctionPointers@@YGEXZ 10020ea9 f i DelayImp:delayhlp.obj
 0001:0001ff24       ?DloadLock@@YGXXZ          10020f24 f i DelayImp:delayhlp.obj
 0001:0001ff81       ?DloadMakePermanentImageCommit@@YGXPAXK@Z 10020f81 f i DelayImp:delayhlp.obj
 0001:0001fff3       ?DloadObtainSection@@YGPAXPAK0@Z 10020ff3 f i DelayImp:delayhlp.obj
 0001:00020076       ?DloadProtectSection@@YGXKPAK@Z 10021076 f i DelayImp:delayhlp.obj
 0001:000200e6       ?DloadReleaseSectionWriteAccess@@YGXXZ 100210e6 f i DelayImp:delayhlp.obj
 0001:0002011e       ?DloadUnlock@@YGXXZ        1002111e f i DelayImp:delayhlp.obj
 0001:00020168       ___delayLoadHelper2@8      10021168 f   DelayImp:delayhlp.obj
 0001:000203f0       __FindPESection            100213f0 f   LIBCMT:pesect.obj
 0001:00020440       __IsNonwritableInCurrentImage 10021440 f   LIBCMT:pesect.obj
 0001:00020500       __ValidateImageBase        10021500 f   LIBCMT:pesect.obj
 0001:00020540       __aulldvrm                 10021540 f   LIBCMT:ulldvrm.obj
 0001:000205e0       __alldiv                   100215e0 f   LIBCMT:lldiv.obj
 0001:00020690       __allmul                   10021690 f   LIBCMT:llmul.obj
 0001:000206d0       __allrem                   100216d0 f   LIBCMT:llrem.obj
 0001:00020790       __SEH_prolog4_GS           10021790 f   LIBCMT:_sehprolg4gs_.obj
 0001:000207d9       __SEH_epilog4_GS           100217d9 f   LIBCMT:_sehprolg4gs_.obj
 0001:000207f0       __alloca_probe_16          100217f0 f   LIBCMT:alloca16.obj
 0001:00020806       __alloca_probe_8           10021806     LIBCMT:alloca16.obj
 0001:00020820       __alldvrm                  10021820 f   LIBCMT:lldvrm.obj
 0001:00020900       __aullshr                  10021900 f   LIBCMT:ullshr.obj
 0001:00020920       __alloca_probe             10021920 f   LIBCMT:chkstk.obj
 0001:00020920       __chkstk                   10021920 f   LIBCMT:chkstk.obj
 0001:00020950       __allshl                   10021950 f   LIBCMT:llshl.obj
 0001:00020970       __ftol2_sse                10021970 f   LIBCMT:_ftol2_.obj
 0001:00020979       __ftol2_pentium4           10021979 f   LIBCMT:_ftol2_.obj
 0001:0002098c       __ftol2_sse_excpt          1002198c f   LIBCMT:_ftol2_.obj
 0001:000209b0       __ftol2                    100219b0 f   LIBCMT:_ftol2_.obj
 0001:00020a30       _memcpy                    10021a30 f   libvcruntime:memcpy.obj
 0001:00020fb0       _strchr                    10021fb0 f   libvcruntime:strchr.obj
 0001:0002101e       ___from_strstr_to_strchr   1002201e     libvcruntime:strchr.obj
 0001:000210e0       _memmove                   100220e0 f   libvcruntime:memmove.obj
 0001:00021660       _strrchr                   10022660 f   libvcruntime:strrchr.obj
 0001:000217a0       __ftoui3                   100227a0 f   LIBCMT:_ftol3_.obj
 0001:000217af       __ftoul3                   100227af f   LIBCMT:_ftol3_.obj
 0001:000217be       __ftol3                    100227be f   LIBCMT:_ftol3_.obj
 0001:000217cb       __ftol3_NaN                100227cb f   LIBCMT:_ftol3_.obj
 0001:000217e3       __ftol3_work               100227e3 f   LIBCMT:_ftol3_.obj
 0001:00021869       __ftol3_common             10022869 f   LIBCMT:_ftol3_.obj
 0001:0002192b       __ftol3_arg_error          1002292b f   LIBCMT:_ftol3_.obj
 0001:0002193d       __ftol3_except             1002293d f   LIBCMT:_ftol3_.obj
 0001:00021981       __dtoui3                   10022981 f   LIBCMT:_ftol3_.obj
 0001:00021990       __dtoul3                   10022990 f   LIBCMT:_ftol3_.obj
 0001:0002199f       __dtol3                    1002299f f   LIBCMT:_ftol3_.obj
 0001:000219ac       __dtol3_NaN                100229ac f   LIBCMT:_ftol3_.obj
 0001:000219c9       __dtol3_work               100229c9 f   LIBCMT:_ftol3_.obj
 0001:00021ab0       __ultod3                   10022ab0 f   LIBCMT:_ftol3_.obj
 0001:00021af0       __ltod3                    10022af0 f   LIBCMT:_ftol3_.obj
 0002:00000000       __imp__SystemFunction036@8 10023000     advapi32:ADVAPI32.dll
 0002:00000004       \177ADVAPI32_NULL_THUNK_DATA 10023004     advapi32:ADVAPI32.dll
 0002:00000008       __imp__VirtualProtect@16   10023008     kernel32:KERNEL32.dll
 0002:0000000c       __imp__GetSystemInfo@4     1002300c     kernel32:KERNEL32.dll
 0002:00000010       __imp__VirtualQuery@12     10023010     kernel32:KERNEL32.dll
 0002:00000014       __imp__GetModuleHandleW@4  10023014     kernel32:KERNEL32.dll
 0002:00000018       __imp__DecodePointer@4     10023018     kernel32:KERNEL32.dll
 0002:0000001c       __imp__CreateFileW@28      1002301c     kernel32:KERNEL32.dll
 0002:00000020       __imp__SetFilePointerEx@20 10023020     kernel32:KERNEL32.dll
 0002:00000024       __imp__SetStdHandle@8      10023024     kernel32:KERNEL32.dll
 0002:00000028       __imp__HeapReAlloc@16      10023028     kernel32:KERNEL32.dll
 0002:0000002c       __imp__HeapSize@12         1002302c     kernel32:KERNEL32.dll
 0002:00000030       __imp__GetConsoleMode@8    10023030     kernel32:KERNEL32.dll
 0002:00000034       __imp__GetConsoleCP@0      10023034     kernel32:KERNEL32.dll
 0002:00000038       __imp__FlushFileBuffers@4  10023038     kernel32:KERNEL32.dll
 0002:0000003c       __imp__GetStringTypeW@16   1002303c     kernel32:KERNEL32.dll
 0002:00000040       __imp__GetCommandLineW@0   10023040     kernel32:KERNEL32.dll
 0002:00000044       __imp__GetCommandLineA@0   10023044     kernel32:KERNEL32.dll
 0002:00000048       __imp__GetProcessHeap@0    10023048     kernel32:KERNEL32.dll
 0002:0000004c       __imp__SetEnvironmentVariableA@8 1002304c     kernel32:KERNEL32.dll
 0002:00000050       __imp__FreeEnvironmentStringsW@4 10023050     kernel32:KERNEL32.dll
 0002:00000054       __imp__GetEnvironmentStringsW@0 10023054     kernel32:KERNEL32.dll
 0002:00000058       __imp__GetCPInfo@8         10023058     kernel32:KERNEL32.dll
 0002:0000005c       __imp__UnhandledExceptionFilter@4 1002305c     kernel32:KERNEL32.dll
 0002:00000060       __imp__SetUnhandledExceptionFilter@4 10023060     kernel32:KERNEL32.dll
 0002:00000064       __imp__GetCurrentProcess@0 10023064     kernel32:KERNEL32.dll
 0002:00000068       __imp__TerminateProcess@8  10023068     kernel32:KERNEL32.dll
 0002:0000006c       __imp__IsProcessorFeaturePresent@4 1002306c     kernel32:KERNEL32.dll
 0002:00000070       __imp__IsDebuggerPresent@0 10023070     kernel32:KERNEL32.dll
 0002:00000074       __imp__GetStartupInfoW@4   10023074     kernel32:KERNEL32.dll
 0002:00000078       __imp__QueryPerformanceCounter@4 10023078     kernel32:KERNEL32.dll
 0002:0000007c       __imp__GetCurrentProcessId@0 1002307c     kernel32:KERNEL32.dll
 0002:00000080       __imp__GetCurrentThreadId@0 10023080     kernel32:KERNEL32.dll
 0002:00000084       __imp__GetSystemTimeAsFileTime@4 10023084     kernel32:KERNEL32.dll
 0002:00000088       __imp__InitializeSListHead@4 10023088     kernel32:KERNEL32.dll
 0002:0000008c       __imp__GetLastError@0      1002308c     kernel32:KERNEL32.dll
 0002:00000090       __imp__GetModuleFileNameW@12 10023090     kernel32:KERNEL32.dll
 0002:00000094       __imp__RaiseException@16   10023094     kernel32:KERNEL32.dll
 0002:00000098       __imp__InterlockedFlushSList@4 10023098     kernel32:KERNEL32.dll
 0002:0000009c       __imp__SetLastError@4      1002309c     kernel32:KERNEL32.dll
 0002:000000a0       __imp__EnterCriticalSection@4 100230a0     kernel32:KERNEL32.dll
 0002:000000a4       __imp__LeaveCriticalSection@4 100230a4     kernel32:KERNEL32.dll
 0002:000000a8       __imp__DeleteCriticalSection@4 100230a8     kernel32:KERNEL32.dll
 0002:000000ac       __imp__InitializeCriticalSectionAndSpinCount@8 100230ac     kernel32:KERNEL32.dll
 0002:000000b0       __imp__TlsAlloc@0          100230b0     kernel32:KERNEL32.dll
 0002:000000b4       __imp__TlsGetValue@4       100230b4     kernel32:KERNEL32.dll
 0002:000000b8       __imp__TlsSetValue@8       100230b8     kernel32:KERNEL32.dll
 0002:000000bc       __imp__TlsFree@4           100230bc     kernel32:KERNEL32.dll
 0002:000000c0       __imp__FreeLibrary@4       100230c0     kernel32:KERNEL32.dll
 0002:000000c4       __imp__GetProcAddress@8    100230c4     kernel32:KERNEL32.dll
 0002:000000c8       __imp__LoadLibraryExW@12   100230c8     kernel32:KERNEL32.dll
 0002:000000cc       __imp__RtlUnwind@16        100230cc     kernel32:KERNEL32.dll
 0002:000000d0       __imp__GetStdHandle@4      100230d0     kernel32:KERNEL32.dll
 0002:000000d4       __imp__GetFileType@4       100230d4     kernel32:KERNEL32.dll
 0002:000000d8       __imp__GetModuleHandleExW@12 100230d8     kernel32:KERNEL32.dll
 0002:000000dc       __imp__WriteConsoleW@20    100230dc     kernel32:KERNEL32.dll
 0002:000000e0       __imp__ExitProcess@4       100230e0     kernel32:KERNEL32.dll
 0002:000000e4       __imp__MultiByteToWideChar@24 100230e4     kernel32:KERNEL32.dll
 0002:000000e8       __imp__WideCharToMultiByte@32 100230e8     kernel32:KERNEL32.dll
 0002:000000ec       __imp__HeapFree@12         100230ec     kernel32:KERNEL32.dll
 0002:000000f0       __imp__HeapAlloc@12        100230f0     kernel32:KERNEL32.dll
 0002:000000f4       __imp__GetTimeZoneInformation@4 100230f4     kernel32:KERNEL32.dll
 0002:000000f8       __imp__WriteFile@20        100230f8     kernel32:KERNEL32.dll
 0002:000000fc       __imp__OutputDebugStringW@4 100230fc     kernel32:KERNEL32.dll
 0002:00000100       __imp__CloseHandle@4       10023100     kernel32:KERNEL32.dll
 0002:00000104       __imp__WaitForSingleObjectEx@12 10023104     kernel32:KERNEL32.dll
 0002:00000108       __imp__CreateThread@24     10023108     kernel32:KERNEL32.dll
 0002:0000010c       __imp__GetACP@0            1002310c     kernel32:KERNEL32.dll
 0002:00000110       __imp__CompareStringW@24   10023110     kernel32:KERNEL32.dll
 0002:00000114       __imp__LCMapStringW@24     10023114     kernel32:KERNEL32.dll
 0002:00000118       __imp__IsValidCodePage@4   10023118     kernel32:KERNEL32.dll
 0002:0000011c       __imp__GetOEMCP@0          1002311c     kernel32:KERNEL32.dll
 0002:00000120       __imp__LoadLibraryExA@12   10023120     kernel32:KERNEL32.dll
 0002:00000124       \177KERNEL32_NULL_THUNK_DATA 10023124     kernel32:KERNEL32.dll
 0002:00000128       __imp__SQLMoreResults@4    10023128     odbc32:ODBC32.dll
 0002:0000012c       __imp__SQLFreeStmt@8       1002312c     odbc32:ODBC32.dll
 0002:00000130       __imp__SQLPrepareW@12      10023130     odbc32:ODBC32.dll
 0002:00000134       __imp__SQLExecute@4        10023134     odbc32:ODBC32.dll
 0002:00000138       __imp__SQLRowCount@8       10023138     odbc32:ODBC32.dll
 0002:0000013c       __imp__SQLDriverConnectW@32 1002313c     odbc32:ODBC32.dll
 0002:00000140       __imp__SQLDisconnect@4     10023140     odbc32:ODBC32.dll
 0002:00000144       __imp__SQLBindParameter@40 10023144     odbc32:ODBC32.dll
 0002:00000148       __imp__SQLExecDirectW@12   10023148     odbc32:ODBC32.dll
 0002:0000014c       __imp__SQLColumnsW@36      1002314c     odbc32:ODBC32.dll
 0002:00000150       __imp__SQLGetFunctions@12  10023150     odbc32:ODBC32.dll
 0002:00000154       __imp__SQLSetConnectAttrW@16 10023154     odbc32:ODBC32.dll
 0002:00000158       __imp__SQLEndTran@12       10023158     odbc32:ODBC32.dll
 0002:0000015c       __imp__SQLTablesW@36       1002315c     odbc32:ODBC32.dll
 0002:00000160       __imp__SQLGetData@24       10023160     odbc32:ODBC32.dll
 0002:00000164       __imp__SQLNumResultCols@8  10023164     odbc32:ODBC32.dll
 0002:00000168       __imp__SQLColAttributeW@28 10023168     odbc32:ODBC32.dll
 0002:0000016c       __imp__SQLSetEnvAttr@16    1002316c     odbc32:ODBC32.dll
 0002:00000170       __imp__SQLFetch@4          10023170     odbc32:ODBC32.dll
 0002:00000174       __imp__SQLAllocHandle@12   10023174     odbc32:ODBC32.dll
 0002:00000178       __imp__SQLGetDiagFieldW@28 10023178     odbc32:ODBC32.dll
 0002:0000017c       __imp__SQLFreeHandle@8     1002317c     odbc32:ODBC32.dll
 0002:00000180       __imp__SQLGetDiagRecW@32   10023180     odbc32:ODBC32.dll
 0002:00000184       \177ODBC32_NULL_THUNK_DATA 10023184     odbc32:ODBC32.dll
 0002:00000188       ___guard_check_icall_fptr  10023188     LIBCMT:guard_support.obj
 0002:0000018c       ___xc_a                    1002318c     LIBCMT:initializers.obj
 0002:000001b0       __register_odbc_bindings_  100231b0     odbc.obj
 0002:000001b4       ___xc_z                    100231b4     LIBCMT:initializers.obj
 0002:000001b8       ___xi_a                    100231b8     LIBCMT:initializers.obj
 0002:000001bc       ___acrt_timeset_initializer 100231bc     libucrt:timeset_initializer.obj
 0002:000001c0       ___acrt_stdio_initializer  100231c0     libucrt:stdio_initializer.obj
 0002:000001c4       ___acrt_multibyte_initializer 100231c4     libucrt:multibyte_initializer.obj
 0002:000001c8       ___acrt_tran_sse2_initializer 100231c8     libucrt:sse2_initializer.obj
 0002:000001cc       ___xi_z                    100231cc     LIBCMT:initializers.obj
 0002:000001d0       ___xp_a                    100231d0     LIBCMT:initializers.obj
 0002:000001d4       ___acrt_locale_terminator  100231d4     libucrt:locale_initializer.obj
 0002:000001d8       ___dcrt_console_output_terminator 100231d8     libucrt:console_output_initializer.obj
 0002:000001dc       ___acrt_stdio_terminator   100231dc     libucrt:stdio_initializer.obj
 0002:000001e0       ___xp_z                    100231e0     LIBCMT:initializers.obj
 0002:000001e4       ___xt_a                    100231e4     LIBCMT:initializers.obj
 0002:000001e8       ___xt_z                    100231e8     LIBCMT:initializers.obj
 0002:000001f0       __sz_node_exe              100231f0     node:node.exe
 0002:000001fc       __pDefaultRawDllMain       100231fc     LIBCMT:dll_dllmain.obj
 0002:000001fc       __pRawDllMain              100231fc     LIBCMT:dll_dllmain.obj
 0002:0000020c       ??_7exception@std@@6B@     1002320c     LIBCMT:throw_bad_alloc.obj
 0002:00000214       ??_C@_0BC@EOODALEL@Unknown?5exception?$AA@ 10023214     LIBCMT:throw_bad_alloc.obj
 0002:0000022c       ??_7bad_alloc@std@@6B@     1002322c     LIBCMT:throw_bad_alloc.obj
 0002:00000234       ??_C@_0P@GHFPNOJB@bad?5allocation?$AA@ 10023234     LIBCMT:throw_bad_alloc.obj
 0002:00000248       ??_7bad_array_new_length@std@@6B@ 10023248     LIBCMT:throw_bad_alloc.obj
 0002:00000250       ??_C@_0BF@KINCDENJ@bad?5array?5new?5length?$AA@ 10023250     LIBCMT:throw_bad_alloc.obj
 0002:0000026c       ??_7type_info@@6B@         1002326c     LIBCMT:std_type_info_static.obj
 0002:00000270       __Microsoft_CRTProvider    10023270     libvcruntime:telemetry.obj
 0002:00000274       ??_C@_11LOCGONAA@?$AA?$AA@ 10023274     libvcruntime:telemetry.obj
 0002:00000278       ??_C@_0O@JEOPJOMI@Main?5Invoked?4?$AA@ 10023278     libvcruntime:telemetry.obj
 0002:00000288       ??_C@_0P@NEAEIBDO@Main?5Returned?4?$AA@ 10023288     libvcruntime:telemetry.obj
 0002:000002c8       ??_C@_1BC@DNHGCMLG@?$AAa?$AAd?$AAv?$AAa?$AAp?$AAi?$AA3?$AA2?$AA?$AA@ 100232c8     libvcruntime:winapi_downlevel.obj
 0002:000002dc       ??_C@_1DM@KHCHBNEB@?$AAa?$AAp?$AAi?$AA?9?$AAm?$AAs?$AA?9?$AAw?$AAi?$AAn?$AA?9?$AAc?$AAo?$AAr?$AAe?$AA?9?$AAf?$AAi?$AAb?$AAe?$AAr?$AAs?$AA?9?$AAl?$AA1?$AA?9?$AA1?$AA?9?$AA1?$AA?$AA@ 100232dc     libvcruntime:winapi_downlevel.obj
 0002:00000318       ??_C@_1DK@LPPGFMPP@?$AAa?$AAp?$AAi?$AA?9?$AAm?$AAs?$AA?9?$AAw?$AAi?$AAn?$AA?9?$AAc?$AAo?$AAr?$AAe?$AA?9?$AAs?$AAy?$AAn?$AAc?$AAh?$AA?9?$AAl?$AA1?$AA?9?$AA2?$AA?9?$AA0?$AA?$AA@ 10023318     libvcruntime:winapi_downlevel.obj
 0002:00000354       ??_C@_1BC@GDMECMAK@?$AAk?$AAe?$AAr?$AAn?$AAe?$AAl?$AA3?$AA2?$AA?$AA@ 10023354     libvcruntime:winapi_downlevel.obj
 0002:0000036c       ??_C@_0O@BAMBGLIE@EventRegister?$AA@ 1002336c     libvcruntime:winapi_downlevel.obj
 0002:00000380       ??_C@_0BE@BJEEGHGK@EventSetInformation?$AA@ 10023380     libvcruntime:winapi_downlevel.obj
 0002:00000398       ??_C@_0BA@FAKLIPIC@EventUnregister?$AA@ 10023398     libvcruntime:winapi_downlevel.obj
 0002:000003ac       ??_C@_0BD@PKLHJPHD@EventWriteTransfer?$AA@ 100233ac     libvcruntime:winapi_downlevel.obj
 0002:000003c8       ??_C@_08KNHFBNJ@FlsAlloc?$AA@ 100233c8     libvcruntime:winapi_downlevel.obj
 0002:000003dc       ??_C@_07PEJMOBNF@FlsFree?$AA@ 100233dc     libvcruntime:winapi_downlevel.obj
 0002:000003ec       ??_C@_0M@GDNOONDI@FlsGetValue?$AA@ 100233ec     libvcruntime:winapi_downlevel.obj
 0002:00000400       ??_C@_0M@JCPCPOEF@FlsSetValue?$AA@ 10023400     libvcruntime:winapi_downlevel.obj
 0002:00000414       ??_C@_0BM@HCFOFFN@InitializeCriticalSectionEx?$AA@ 10023414     libvcruntime:winapi_downlevel.obj
 0002:000005c0       ??_C@_08EHJDFFNH@__based?$CI?$AA@ 100235c0     libvcruntime:undname.obj
 0002:000005cc       ??_C@_07KOLFKCDI@__cdecl?$AA@ 100235cc     libvcruntime:undname.obj
 0002:000005d4       ??_C@_08GHMPAG@__pascal?$AA@ 100235d4     libvcruntime:undname.obj
 0002:000005e0       ??_C@_09IFJBGAPI@__stdcall?$AA@ 100235e0     libvcruntime:undname.obj
 0002:000005ec       ??_C@_0L@NPHFGOKO@__thiscall?$AA@ 100235ec     libvcruntime:undname.obj
 0002:000005f8       ??_C@_0L@JMKHOMEK@__fastcall?$AA@ 100235f8     libvcruntime:undname.obj
 0002:00000604       ??_C@_0N@BCKKPABJ@__vectorcall?$AA@ 10023604     libvcruntime:undname.obj
 0002:00000614       ??_C@_09HIJEGCPM@__clrcall?$AA@ 10023614     libvcruntime:undname.obj
 0002:00000620       ??_C@_06GHPCKEAG@__eabi?$AA@ 10023620     libvcruntime:undname.obj
 0002:00000628       ??_C@_07JOMMBBKO@__ptr64?$AA@ 10023628     libvcruntime:undname.obj
 0002:00000630       ??_C@_0L@PILCLIHE@__restrict?$AA@ 10023630     libvcruntime:undname.obj
 0002:0000063c       ??_C@_0M@GFIIJFMG@__unaligned?$AA@ 1002363c     libvcruntime:undname.obj
 0002:00000648       ??_C@_09DHDLOLLB@restrict?$CI?$AA@ 10023648     libvcruntime:undname.obj
 0002:00000654       ??_C@_04NIHEBCM@?5new?$AA@ 10023654     libvcruntime:undname.obj
 0002:0000065c       ??_C@_07FPCDHGMM@?5delete?$AA@ 1002365c     libvcruntime:undname.obj
 0002:00000664       ??_C@_01NEMOKFLO@?$DN?$AA@ 10023664     libvcruntime:undname.obj
 0002:00000668       ??_C@_02GPIOPFAK@?$DO?$DO?$AA@ 10023668     libvcruntime:undname.obj
 0002:0000066c       ??_C@_02FODMEDOG@?$DM?$DM?$AA@ 1002366c     libvcruntime:undname.obj
 0002:00000670       ??_C@_01DCLJPIOD@?$CB?$AA@ 10023670     libvcruntime:undname.obj
 0002:00000674       ??_C@_02EGOFBIJA@?$DN?$DN?$AA@ 10023674     libvcruntime:undname.obj
 0002:00000678       ??_C@_02FDNJECIE@?$CB?$DN?$AA@ 10023678     libvcruntime:undname.obj
 0002:0000067c       ??_C@_02GPECMEKF@?$FL?$FN?$AA@ 1002367c     libvcruntime:undname.obj
 0002:00000680       ??_C@_08LHJFAFGD@operator?$AA@ 10023680     libvcruntime:undname.obj
 0002:0000068c       ??_C@_02HBOOOICD@?9?$DO?$AA@ 1002368c     libvcruntime:undname.obj
 0002:00000690       ??_C@_01NBENCBCI@?$CK?$AA@ 10023690     libvcruntime:undname.obj
 0002:00000694       ??_C@_02ECNGHCIF@?$CL?$CL?$AA@ 10023694     libvcruntime:undname.obj
 0002:00000698       ??_C@_02BAABKJLB@?9?9?$AA@ 10023698     libvcruntime:undname.obj
 0002:0000069c       ??_C@_01JOAMLHOP@?9?$AA@   1002369c     libvcruntime:undname.obj
 0002:000006a0       ??_C@_01MIFGBAGJ@?$CL?$AA@ 100236a0     libvcruntime:undname.obj
 0002:000006a4       ??_C@_01HNPIGOCE@?$CG?$AA@ 100236a4     libvcruntime:undname.obj
 0002:000006a8       ??_C@_03MNHNFDLC@?9?$DO?$CK?$AA@ 100236a8     libvcruntime:undname.obj
 0002:000006ac       ??_C@_01KMDKNFGN@?1?$AA@   100236ac     libvcruntime:undname.obj
 0002:000006b0       ??_C@_01FGNFDNOH@?$CF?$AA@ 100236b0     libvcruntime:undname.obj
 0002:000006b4       ??_C@_01MNNFJEPP@?$DM?$AA@ 100236b4     libvcruntime:undname.obj
 0002:000006b8       ??_C@_02EHCHHCKH@?$DM?$DN?$AA@ 100236b8     libvcruntime:undname.obj
 0002:000006bc       ??_C@_01PPODPGHN@?$DO?$AA@ 100236bc     libvcruntime:undname.obj
 0002:000006c0       ??_C@_02EEKDKGMJ@?$DO?$DN?$AA@ 100236c0     libvcruntime:undname.obj
 0002:000006c4       ??_C@_01IHBHIGKO@?0?$AA@   100236c4     libvcruntime:undname.obj
 0002:000006c8       ??_C@_02HCKGKOFO@?$CI?$CJ?$AA@ 100236c8     libvcruntime:undname.obj
 0002:000006cc       ??_C@_01PJKLJHI@?$HO?$AA@  100236cc     libvcruntime:undname.obj
 0002:000006d0       ??_C@_01JKBOJNNK@?$FO?$AA@ 100236d0     libvcruntime:undname.obj
 0002:000006d4       ??_C@_01DNKMNLPK@?$HM?$AA@ 100236d4     libvcruntime:undname.obj
 0002:000006d8       ??_C@_02PPKAJPJL@?$CG?$CG?$AA@ 100236d8     libvcruntime:undname.obj
 0002:000006dc       ??_C@_02NONPIBCD@?$HM?$HM?$AA@ 100236dc     libvcruntime:undname.obj
 0002:000006e0       ??_C@_02FPIMKNGF@?$CK?$DN?$AA@ 100236e0     libvcruntime:undname.obj
 0002:000006e4       ??_C@_02FOEOMHFC@?$CL?$DN?$AA@ 100236e4     libvcruntime:undname.obj
 0002:000006e8       ??_C@_02FKMDLLOA@?9?$DN?$AA@ 100236e8     libvcruntime:undname.obj
 0002:000006ec       ??_C@_02FJEHGPIO@?1?$DN?$AA@ 100236ec     libvcruntime:undname.obj
 0002:000006f0       ??_C@_02FENAOKFI@?$CF?$DN?$AA@ 100236f0     libvcruntime:undname.obj
 0002:000006f4       ??_C@_03IKFCCPFF@?$DO?$DO?$DN?$AA@ 100236f4     libvcruntime:undname.obj
 0002:000006f8       ??_C@_03CDNPDDLA@?$DM?$DM?$DN?$AA@ 100236f8     libvcruntime:undname.obj
 0002:000006fc       ??_C@_02FGJGFEAB@?$CG?$DN?$AA@ 100236fc     libvcruntime:undname.obj
 0002:00000700       ??_C@_02DHLNPPGH@?$HM?$DN?$AA@ 10023700     libvcruntime:undname.obj
 0002:00000704       ??_C@_02MHEGNOJ@?$FO?$DN?$AA@ 10023704     libvcruntime:undname.obj
 0002:00000708       ??_C@_09IFPLHPGF@?$GAvftable?8?$AA@ 10023708     libvcruntime:undname.obj
 0002:00000714       ??_C@_09BLBHBJP@?$GAvbtable?8?$AA@ 10023714     libvcruntime:undname.obj
 0002:00000720       ??_C@_07FEEIOKP@?$GAvcall?8?$AA@ 10023720     libvcruntime:undname.obj
 0002:00000728       ??_C@_08LLFFHHDJ@?$GAtypeof?8?$AA@ 10023728     libvcruntime:undname.obj
 0002:00000734       ??_C@_0BF@KDPPACIK@?$GAlocal?5static?5guard?8?$AA@ 10023734     libvcruntime:undname.obj
 0002:0000074c       ??_C@_08OBABFOLI@?$GAstring?8?$AA@ 1002374c     libvcruntime:undname.obj
 0002:00000758       ??_C@_0BD@JDLKDPAB@?$GAvbase?5destructor?8?$AA@ 10023758     libvcruntime:undname.obj
 0002:0000076c       ??_C@_0BN@DEGPLNFK@?$GAvector?5deleting?5destructor?8?$AA@ 1002376c     libvcruntime:undname.obj
 0002:0000078c       ??_C@_0BO@OBMKPJIG@?$GAdefault?5constructor?5closure?8?$AA@ 1002378c     libvcruntime:undname.obj
 0002:000007ac       ??_C@_0BN@IMDCHIKM@?$GAscalar?5deleting?5destructor?8?$AA@ 100237ac     libvcruntime:undname.obj
 0002:000007cc       ??_C@_0BO@PFGOCPJJ@?$GAvector?5constructor?5iterator?8?$AA@ 100237cc     libvcruntime:undname.obj
 0002:000007ec       ??_C@_0BN@LFPFMEDL@?$GAvector?5destructor?5iterator?8?$AA@ 100237ec     libvcruntime:undname.obj
 0002:0000080c       ??_C@_0CE@IKBNEHA@?$GAvector?5vbase?5constructor?5iterat@ 1002380c     libvcruntime:undname.obj
 0002:00000830       ??_C@_0BL@NILFHHPC@?$GAvirtual?5displacement?5map?8?$AA@ 10023830     libvcruntime:undname.obj
 0002:0000084c       ??_C@_0CB@JONCMFFK@?$GAeh?5vector?5constructor?5iterator?8@ 1002384c     libvcruntime:undname.obj
 0002:00000870       ??_C@_0CA@GCEOPDGL@?$GAeh?5vector?5destructor?5iterator?8?$AA@ 10023870     libvcruntime:undname.obj
 0002:00000890       ??_C@_0CH@OOJPLCPH@?$GAeh?5vector?5vbase?5constructor?5ite@ 10023890     libvcruntime:undname.obj
 0002:000008b8       ??_C@_0BL@LLKPOHJI@?$GAcopy?5constructor?5closure?8?$AA@ 100238b8     libvcruntime:undname.obj
 0002:000008d4       ??_C@_0BA@KBCDOMBN@?$GAudt?5returning?8?$AA@ 100238d4     libvcruntime:undname.obj
 0002:000008e4       ??_C@_03KLGMFNMG@?$GAEH?$AA@ 100238e4     libvcruntime:undname.obj
 0002:000008e8       ??_C@_05KHLCHHI@?$GARTTI?$AA@ 100238e8     libvcruntime:undname.obj
 0002:000008f0       ??_C@_0BA@KKLDJDLB@?$GAlocal?5vftable?8?$AA@ 100238f0     libvcruntime:undname.obj
 0002:00000900       ??_C@_0CE@IIHCMGGL@?$GAlocal?5vftable?5constructor?5closu@ 10023900     libvcruntime:undname.obj
 0002:00000924       ??_C@_06FHBGPFGH@?5new?$FL?$FN?$AA@ 10023924     libvcruntime:undname.obj
 0002:0000092c       ??_C@_09LBNFPBCA@?5delete?$FL?$FN?$AA@ 1002392c     libvcruntime:undname.obj
 0002:00000938       ??_C@_0P@HJKNJFNN@?$GAomni?5callsig?8?$AA@ 10023938     libvcruntime:undname.obj
 0002:00000948       ??_C@_0BL@CNOONJFP@?$GAplacement?5delete?5closure?8?$AA@ 10023948     libvcruntime:undname.obj
 0002:00000964       ??_C@_0BN@CKNJLHMB@?$GAplacement?5delete?$FL?$FN?5closure?8?$AA@ 10023964     libvcruntime:undname.obj
 0002:00000984       ??_C@_0CG@CFDHKGGD@?$GAmanaged?5vector?5constructor?5iter@ 10023984     libvcruntime:undname.obj
 0002:000009ac       ??_C@_0CF@IMGKMJNO@?$GAmanaged?5vector?5destructor?5itera@ 100239ac     libvcruntime:undname.obj
 0002:000009d4       ??_C@_0CG@HLDDJMAG@?$GAeh?5vector?5copy?5constructor?5iter@ 100239d4     libvcruntime:undname.obj
 0002:000009fc       ??_C@_0CM@FCBBDIGB@?$GAeh?5vector?5vbase?5copy?5constructo@ 100239fc     libvcruntime:undname.obj
 0002:00000a28       ??_C@_0BL@CLIPGLGB@?$GAdynamic?5initializer?5for?5?8?$AA@ 10023a28     libvcruntime:undname.obj
 0002:00000a44       ??_C@_0CB@PDBIFEP@?$GAdynamic?5atexit?5destructor?5for?5?8@ 10023a44     libvcruntime:undname.obj
 0002:00000a68       ??_C@_0CD@CGAJBKEJ@?$GAvector?5copy?5constructor?5iterato@ 10023a68     libvcruntime:undname.obj
 0002:00000a8c       ??_C@_0CJ@GJELGAMM@?$GAvector?5vbase?5copy?5constructor?5i@ 10023a8c     libvcruntime:undname.obj
 0002:00000ab8       ??_C@_0CL@FGIJHLCE@?$GAmanaged?5vector?5copy?5constructor@ 10023ab8     libvcruntime:undname.obj
 0002:00000ae4       ??_C@_0BM@PMGGMLDN@?$GAlocal?5static?5thread?5guard?8?$AA@ 10023ae4     libvcruntime:undname.obj
 0002:00000b00       ??_C@_0N@BDNMDMOL@operator?5?$CC?$CC?5?$AA@ 10023b00     libvcruntime:undname.obj
 0002:00000b10       ??_C@_0BC@DAFEJGAK@?5Type?5Descriptor?8?$AA@ 10023b10     libvcruntime:undname.obj
 0002:00000b24       ??_C@_0BM@LDKODKLH@?5Base?5Class?5Descriptor?5at?5?$CI?$AA@ 10023b24     libvcruntime:undname.obj
 0002:00000b40       ??_C@_0BD@LGICGFMM@?5Base?5Class?5Array?8?$AA@ 10023b40     libvcruntime:undname.obj
 0002:00000b54       ??_C@_0BN@MECKDCOJ@?5Class?5Hierarchy?5Descriptor?8?$AA@ 10023b54     libvcruntime:undname.obj
 0002:00000b74       ??_C@_0BK@CFCOFLF@?5Complete?5Object?5Locator?8?$AA@ 10023b74     libvcruntime:undname.obj
 0002:00000b90       ??_C@_1EK@MBDPDCGA@?$AAM?$AAi?$AAc?$AAr?$AAo?$AAs?$AAo?$AAf?$AAt?$AA?5?$AAV?$AAi?$AAs?$AAu?$AAa?$AAl?$AA?5?$AAC?$AA?$CL?$AA?$CL?$AA?5?$AAR?$AAu?$AAn?$AAt?$AAi?$AAm?$AAe?$AA?5?$AAL?$AAi?$AAb@ 10023b90     libucrt:assert.obj
 0002:00000be0       ??_C@_1FE@LHBLIKM@?$AAA?$AAs?$AAs?$AAe?$AAr?$AAt?$AAi?$AAo?$AAn?$AA?5?$AAf?$AAa?$AAi?$AAl?$AAe?$AAd?$AA?3?$AA?5?$AA?$CF?$AAT?$AAs?$AA?0?$AA?5?$AAf?$AAi?$AAl?$AAe?$AA?5?$AA?$CF?$AAT?$AAs?$AA?0@ 10023be0     libucrt:assert.obj
 0002:00000c34       ??_C@_1CE@OJBNHDMO@?$AAA?$AAs?$AAs?$AAe?$AAr?$AAt?$AAi?$AAo?$AAn?$AA?5?$AAf?$AAa?$AAi?$AAl?$AAe?$AAd?$AA?$CB?$AA?$AA@ 10023c34     libucrt:assert.obj
 0002:00000c58       ??_C@_1BE@PHKBBGE@?$AAP?$AAr?$AAo?$AAg?$AAr?$AAa?$AAm?$AA?3?$AA?5?$AA?$AA@ 10023c58     libucrt:assert.obj
 0002:00000c6c       ??_C@_1O@HEMHKNDC@?$AAF?$AAi?$AAl?$AAe?$AA?3?$AA?5?$AA?$AA@ 10023c6c     libucrt:assert.obj
 0002:00000c7c       ??_C@_1O@KCAFKHJE@?$AAL?$AAi?$AAn?$AAe?$AA?3?$AA?5?$AA?$AA@ 10023c7c     libucrt:assert.obj
 0002:00000c8c       ??_C@_1BK@PEDCIPMA@?$AAE?$AAx?$AAp?$AAr?$AAe?$AAs?$AAs?$AAi?$AAo?$AAn?$AA?3?$AA?5?$AA?$AA@ 10023c8c     libucrt:assert.obj
 0002:00000ca8       ??_C@_1OA@EGMLFBHJ@?$AAF?$AAo?$AAr?$AA?5?$AAi?$AAn?$AAf?$AAo?$AAr?$AAm?$AAa?$AAt?$AAi?$AAo?$AAn?$AA?5?$AAo?$AAn?$AA?5?$AAh?$AAo?$AAw?$AA?5?$AAy?$AAo?$AAu?$AAr?$AA?5?$AAp?$AAr?$AAo?$AAg@ 10023ca8     libucrt:assert.obj
 0002:00000d88       ??_C@_1HK@POCJMFGK@?$AA?$CI?$AAP?$AAr?$AAe?$AAs?$AAs?$AA?5?$AAR?$AAe?$AAt?$AAr?$AAy?$AA?5?$AAt?$AAo?$AA?5?$AAd?$AAe?$AAb?$AAu?$AAg?$AA?5?$AAt?$AAh?$AAe?$AA?5?$AAa?$AAp?$AAp?$AAl?$AAi?$AAc@ 10023d88     libucrt:assert.obj
 0002:00000e04       ??_C@_17LGKOMLJ@?$AA?4?$AA?4?$AA?4?$AA?$AA@ 10023e04     libucrt:assert.obj
 0002:00000e0c       ??_C@_13LBAGMAIH@?$AA?6?$AA?$AA@ 10023e0c     libucrt:assert.obj
 0002:00000e10       ??_C@_15IABLJNFO@?$AA?6?$AA?6?$AA?$AA@ 10023e10     libucrt:assert.obj
 0002:00000e18       ??_C@_1CO@EAEJAADC@?$AA?$DM?$AAp?$AAr?$AAo?$AAg?$AAr?$AAa?$AAm?$AA?5?$AAn?$AAa?$AAm?$AAe?$AA?5?$AAu?$AAn?$AAk?$AAn?$AAo?$AAw?$AAn?$AA?$DO?$AA?$AA@ 10023e18     libucrt:assert.obj
 0002:00000e48       ___acrt_exception_action_table 10023e48     libucrt:exception_filter.obj
 0002:00000ed8       ___acrt_signal_action_table_count 10023ed8     libucrt:exception_filter.obj
 0002:00000edc       ___acrt_signal_action_first_fpe_index 10023edc     libucrt:exception_filter.obj
 0002:00000ee0       ___acrt_signal_action_fpe_count 10023ee0     libucrt:exception_filter.obj
 0002:00000ee4       ??_C@_1BI@BGOHAHKC@?$AAm?$AAs?$AAc?$AAo?$AAr?$AAe?$AAe?$AA?4?$AAd?$AAl?$AAl?$AA?$AA@ 10023ee4     libucrt:exit.obj
 0002:00000efc       ??_C@_0P@MIGLKIOC@CorExitProcess?$AA@ 10023efc     libucrt:exit.obj
 0002:00000f88       _standard_lookup_table     10023f88     libucrt:output.obj
 0002:00000fe4       ??_C@_06OJHGLDPL@?$CInull?$CJ?$AA@ 10023fe4     libucrt:output.obj
 0002:00000fec       ??_C@_1O@CEDCILHN@?$AA?$CI?$AAn?$AAu?$AAl?$AAl?$AA?$CJ?$AA?$AA@ 10023fec     libucrt:output.obj
 0002:00001168       ??_C@_02CLFPBFFP@TZ?$AA@   10024168     libucrt:tzset.obj
 0002:0000116c       __days                     1002416c     libucrt:days.obj
 0002:000011a0       __lpdays                   100241a0     libucrt:days.obj
 0002:000011d8       __wctype                   100241d8     libucrt:ctype.obj
 0002:000013e0       ___newctype                100243e0     libucrt:ctype.obj
 0002:000016e0       ___newclmap                100246e0     libucrt:ctype.obj
 0002:00001860       ___newcumap                10024860     libucrt:ctype.obj
 0002:000019e0       ??_C@_08BPBNCDIB@MM?1dd?1yy?$AA@ 100249e0     libucrt:nlsdata.obj
 0002:000019ec       ??_C@_0BE@CKGJFCPC@dddd?0?5MMMM?5dd?0?5yyyy?$AA@ 100249ec     libucrt:nlsdata.obj
 0002:00001a00       ??_C@_08JCCMCCIL@HH?3mm?3ss?$AA@ 10024a00     libucrt:nlsdata.obj
 0002:00001a0c       ??_C@_17MBGCMIPB@?$AAS?$AAu?$AAn?$AA?$AA@ 10024a0c     libucrt:nlsdata.obj
 0002:00001a14       ??_C@_17KBOMKBF@?$AAM?$AAo?$AAn?$AA?$AA@ 10024a14     libucrt:nlsdata.obj
 0002:00001a1c       ??_C@_17BMKGEGOJ@?$AAT?$AAu?$AAe?$AA?$AA@ 10024a1c     libucrt:nlsdata.obj
 0002:00001a24       ??_C@_17CJEDCEPE@?$AAW?$AAe?$AAd?$AA?$AA@ 10024a24     libucrt:nlsdata.obj
 0002:00001a2c       ??_C@_17PDPHAADD@?$AAT?$AAh?$AAu?$AA?$AA@ 10024a2c     libucrt:nlsdata.obj
 0002:00001a34       ??_C@_17HFOLPPLP@?$AAF?$AAr?$AAi?$AA?$AA@ 10024a34     libucrt:nlsdata.obj
 0002:00001a3c       ??_C@_17GGIBDPIH@?$AAS?$AAa?$AAt?$AA?$AA@ 10024a3c     libucrt:nlsdata.obj
 0002:00001a44       ??_C@_1O@IHNHDHPB@?$AAS?$AAu?$AAn?$AAd?$AAa?$AAy?$AA?$AA@ 10024a44     libucrt:nlsdata.obj
 0002:00001a54       ??_C@_1O@MMNBFLIA@?$AAM?$AAo?$AAn?$AAd?$AAa?$AAy?$AA?$AA@ 10024a54     libucrt:nlsdata.obj
 0002:00001a64       ??_C@_1BA@ENFBFFEK@?$AAT?$AAu?$AAe?$AAs?$AAd?$AAa?$AAy?$AA?$AA@ 10024a64     libucrt:nlsdata.obj
 0002:00001a74       ??_C@_1BE@EBOGMDOH@?$AAW?$AAe?$AAd?$AAn?$AAe?$AAs?$AAd?$AAa?$AAy?$AA?$AA@ 10024a74     libucrt:nlsdata.obj
 0002:00001a88       ??_C@_1BC@HHMNLIHE@?$AAT?$AAh?$AAu?$AAr?$AAs?$AAd?$AAa?$AAy?$AA?$AA@ 10024a88     libucrt:nlsdata.obj
 0002:00001a9c       ??_C@_1O@PDICJHAG@?$AAF?$AAr?$AAi?$AAd?$AAa?$AAy?$AA?$AA@ 10024a9c     libucrt:nlsdata.obj
 0002:00001aac       ??_C@_1BC@ENMNNPAJ@?$AAS?$AAa?$AAt?$AAu?$AAr?$AAd?$AAa?$AAy?$AA?$AA@ 10024aac     libucrt:nlsdata.obj
 0002:00001ac0       ??_C@_17DKNBKCHM@?$AAJ?$AAa?$AAn?$AA?$AA@ 10024ac0     libucrt:nlsdata.obj
 0002:00001ac8       ??_C@_17LMDJEKJN@?$AAF?$AAe?$AAb?$AA?$AA@ 10024ac8     libucrt:nlsdata.obj
 0002:00001ad0       ??_C@_17CKNLEDEC@?$AAM?$AAa?$AAr?$AA?$AA@ 10024ad0     libucrt:nlsdata.obj
 0002:00001ad8       ??_C@_17LFPOIHDD@?$AAA?$AAp?$AAr?$AA?$AA@ 10024ad8     libucrt:nlsdata.obj
 0002:00001ae0       ??_C@_17PNNKMEED@?$AAM?$AAa?$AAy?$AA?$AA@ 10024ae0     libucrt:nlsdata.obj
 0002:00001ae8       ??_C@_17KCJGOCPB@?$AAJ?$AAu?$AAn?$AA?$AA@ 10024ae8     libucrt:nlsdata.obj
 0002:00001af0       ??_C@_17IJPCKHK@?$AAJ?$AAu?$AAl?$AA?$AA@ 10024af0     libucrt:nlsdata.obj
 0002:00001af8       ??_C@_17ICPELBCN@?$AAA?$AAu?$AAg?$AA?$AA@ 10024af8     libucrt:nlsdata.obj
 0002:00001b00       ??_C@_17HCHCOKMG@?$AAS?$AAe?$AAp?$AA?$AA@ 10024b00     libucrt:nlsdata.obj
 0002:00001b08       ??_C@_17FNLKOI@?$AAO?$AAc?$AAt?$AA?$AA@ 10024b08     libucrt:nlsdata.obj
 0002:00001b10       ??_C@_17BBDMLCIG@?$AAN?$AAo?$AAv?$AA?$AA@ 10024b10     libucrt:nlsdata.obj
 0002:00001b18       ??_C@_17EGKACKIF@?$AAD?$AAe?$AAc?$AA?$AA@ 10024b18     libucrt:nlsdata.obj
 0002:00001b20       ??_C@_1BA@EFMEIEBA@?$AAJ?$AAa?$AAn?$AAu?$AAa?$AAr?$AAy?$AA?$AA@ 10024b20     libucrt:nlsdata.obj
 0002:00001b30       ??_C@_1BC@JGDDFFAM@?$AAF?$AAe?$AAb?$AAr?$AAu?$AAa?$AAr?$AAy?$AA?$AA@ 10024b30     libucrt:nlsdata.obj
 0002:00001b44       ??_C@_1M@IKEENEDF@?$AAM?$AAa?$AAr?$AAc?$AAh?$AA?$AA@ 10024b44     libucrt:nlsdata.obj
 0002:00001b50       ??_C@_1M@GJNLMHFD@?$AAA?$AAp?$AAr?$AAi?$AAl?$AA?$AA@ 10024b50     libucrt:nlsdata.obj
 0002:00001b5c       ??_C@_19EPFLPGAP@?$AAJ?$AAu?$AAn?$AAe?$AA?$AA@ 10024b5c     libucrt:nlsdata.obj
 0002:00001b68       ??_C@_19BIFMLPCD@?$AAJ?$AAu?$AAl?$AAy?$AA?$AA@ 10024b68     libucrt:nlsdata.obj
 0002:00001b74       ??_C@_1O@PAHLKOAC@?$AAA?$AAu?$AAg?$AAu?$AAs?$AAt?$AA?$AA@ 10024b74     libucrt:nlsdata.obj
 0002:00001b84       ??_C@_1BE@DKAAMBJL@?$AAS?$AAe?$AAp?$AAt?$AAe?$AAm?$AAb?$AAe?$AAr?$AA?$AA@ 10024b84     libucrt:nlsdata.obj
 0002:00001b98       ??_C@_1BA@EPANDLNG@?$AAO?$AAc?$AAt?$AAo?$AAb?$AAe?$AAr?$AA?$AA@ 10024b98     libucrt:nlsdata.obj
 0002:00001ba8       ??_C@_1BC@BGLIFPF@?$AAN?$AAo?$AAv?$AAe?$AAm?$AAb?$AAe?$AAr?$AA?$AA@ 10024ba8     libucrt:nlsdata.obj
 0002:00001bbc       ??_C@_1BC@FEMKIFH@?$AAD?$AAe?$AAc?$AAe?$AAm?$AAb?$AAe?$AAr?$AA?$AA@ 10024bbc     libucrt:nlsdata.obj
 0002:00001bd0       ??_C@_15ODEHAHHF@?$AAA?$AAM?$AA?$AA@ 10024bd0     libucrt:nlsdata.obj
 0002:00001bd8       ??_C@_15CLMNNGEL@?$AAP?$AAM?$AA?$AA@ 10024bd8     libucrt:nlsdata.obj
 0002:00001be0       ??_C@_1BC@IEBCMHCM@?$AAM?$AAM?$AA?1?$AAd?$AAd?$AA?1?$AAy?$AAy?$AA?$AA@ 10024be0     libucrt:nlsdata.obj
 0002:00001bf4       ??_C@_1CI@KNAKOEBC@?$AAd?$AAd?$AAd?$AAd?$AA?0?$AA?5?$AAM?$AAM?$AAM?$AAM?$AA?5?$AAd?$AAd?$AA?0?$AA?5?$AAy?$AAy?$AAy?$AAy?$AA?$AA@ 10024bf4     libucrt:nlsdata.obj
 0002:00001c1c       ??_C@_1BC@GDGBMEMK@?$AAH?$AAH?$AA?3?$AAm?$AAm?$AA?3?$AAs?$AAs?$AA?$AA@ 10024c1c     libucrt:nlsdata.obj
 0002:00001c30       ??_C@_1M@BMHNFIME@?$AAe?$AAn?$AA?9?$AAU?$AAS?$AA?$AA@ 10024c30     libucrt:nlsdata.obj
 0002:00001c40       ___lc_time_c               10024c40     libucrt:nlsdata.obj
 0002:00001df8       ??_C@_1EG@CNNIPFIM@?$AAa?$AAp?$AAi?$AA?9?$AAm?$AAs?$AA?9?$AAw?$AAi?$AAn?$AA?9?$AAa?$AAp?$AAp?$AAm?$AAo?$AAd?$AAe?$AAl?$AA?9?$AAr?$AAu?$AAn?$AAt?$AAi?$AAm?$AAe?$AA?9?$AAl?$AA1?$AA?9?$AA1@ 10024df8     libucrt:winapi_thunks.obj
 0002:00001e40       ??_C@_1EA@JGEFHKEI@?$AAa?$AAp?$AAi?$AA?9?$AAm?$AAs?$AA?9?$AAw?$AAi?$AAn?$AA?9?$AAc?$AAo?$AAr?$AAe?$AA?9?$AAd?$AAa?$AAt?$AAe?$AAt?$AAi?$AAm?$AAe?$AA?9?$AAl?$AA1?$AA?9?$AA1?$AA?9?$AA1?$AA?$AA@ 10024e40     libucrt:winapi_thunks.obj
 0002:00001e80       ??_C@_1DI@GCIAAENM@?$AAa?$AAp?$AAi?$AA?9?$AAm?$AAs?$AA?9?$AAw?$AAi?$AAn?$AA?9?$AAc?$AAo?$AAr?$AAe?$AA?9?$AAf?$AAi?$AAl?$AAe?$AA?9?$AAl?$AA2?$AA?9?$AA1?$AA?9?$AA1?$AA?$AA@ 10024e80     libucrt:winapi_thunks.obj
 0002:00001eb8       ??_C@_1EI@MPIAOHOC@?$AAa?$AAp?$AAi?$AA?9?$AAm?$AAs?$AA?9?$AAw?$AAi?$AAn?$AA?9?$AAc?$AAo?$AAr?$AAe?$AA?9?$AAl?$AAo?$AAc?$AAa?$AAl?$AAi?$AAz?$AAa?$AAt?$AAi?$AAo?$AAn?$AA?9?$AAl?$AA1?$AA?9@ 10024eb8     libucrt:winapi_thunks.obj
 0002:00001f00       ??_C@_1FK@FPHCKFIE@?$AAa?$AAp?$AAi?$AA?9?$AAm?$AAs?$AA?9?$AAw?$AAi?$AAn?$AA?9?$AAc?$AAo?$AAr?$AAe?$AA?9?$AAl?$AAo?$AAc?$AAa?$AAl?$AAi?$AAz?$AAa?$AAt?$AAi?$AAo?$AAn?$AA?9?$AAo?$AAb?$AAs@ 10024f00     libucrt:winapi_thunks.obj
 0002:00001f60       ??_C@_1EM@DILCGIIO@?$AAa?$AAp?$AAi?$AA?9?$AAm?$AAs?$AA?9?$AAw?$AAi?$AAn?$AA?9?$AAc?$AAo?$AAr?$AAe?$AA?9?$AAp?$AAr?$AAo?$AAc?$AAe?$AAs?$AAs?$AAt?$AAh?$AAr?$AAe?$AAa?$AAd?$AAs?$AA?9?$AAl@ 10024f60     libucrt:winapi_thunks.obj
 0002:00001fac       ??_C@_1DM@LNCGDDPN@?$AAa?$AAp?$AAi?$AA?9?$AAm?$AAs?$AA?9?$AAw?$AAi?$AAn?$AA?9?$AAc?$AAo?$AAr?$AAe?$AA?9?$AAs?$AAt?$AAr?$AAi?$AAn?$AAg?$AA?9?$AAl?$AA1?$AA?9?$AA1?$AA?9?$AA0?$AA?$AA@ 10024fac     libucrt:winapi_thunks.obj
 0002:00001fe8       ??_C@_1DO@FPAPJEMD@?$AAa?$AAp?$AAi?$AA?9?$AAm?$AAs?$AA?9?$AAw?$AAi?$AAn?$AA?9?$AAc?$AAo?$AAr?$AAe?$AA?9?$AAs?$AAy?$AAs?$AAi?$AAn?$AAf?$AAo?$AA?9?$AAl?$AA1?$AA?9?$AA2?$AA?9?$AA1?$AA?$AA@ 10024fe8     libucrt:winapi_thunks.obj
 0002:00002028       ??_C@_1DK@NDHNAHIO@?$AAa?$AAp?$AAi?$AA?9?$AAm?$AAs?$AA?9?$AAw?$AAi?$AAn?$AA?9?$AAc?$AAo?$AAr?$AAe?$AA?9?$AAw?$AAi?$AAn?$AAr?$AAt?$AA?9?$AAl?$AA1?$AA?9?$AA1?$AA?9?$AA0?$AA?$AA@ 10025028     libucrt:winapi_thunks.obj
 0002:00002064       ??_C@_1DM@KGHDGBCM@?$AAa?$AAp?$AAi?$AA?9?$AAm?$AAs?$AA?9?$AAw?$AAi?$AAn?$AA?9?$AAc?$AAo?$AAr?$AAe?$AA?9?$AAx?$AAs?$AAt?$AAa?$AAt?$AAe?$AA?9?$AAl?$AA2?$AA?9?$AA1?$AA?9?$AA0?$AA?$AA@ 10025064     libucrt:winapi_thunks.obj
 0002:000020a0       ??_C@_1EO@IJIOEFOH@?$AAa?$AAp?$AAi?$AA?9?$AAm?$AAs?$AA?9?$AAw?$AAi?$AAn?$AA?9?$AAr?$AAt?$AAc?$AAo?$AAr?$AAe?$AA?9?$AAn?$AAt?$AAu?$AAs?$AAe?$AAr?$AA?9?$AAw?$AAi?$AAn?$AAd?$AAo?$AAw?$AA?9@ 100250a0     libucrt:winapi_thunks.obj
 0002:000020f0       ??_C@_1FG@HHGEKANL@?$AAa?$AAp?$AAi?$AA?9?$AAm?$AAs?$AA?9?$AAw?$AAi?$AAn?$AA?9?$AAs?$AAe?$AAc?$AAu?$AAr?$AAi?$AAt?$AAy?$AA?9?$AAs?$AAy?$AAs?$AAt?$AAe?$AAm?$AAf?$AAu?$AAn?$AAc?$AAt?$AAi@ 100250f0     libucrt:winapi_thunks.obj
 0002:00002148       ??_C@_1FG@NCKKOLKO@?$AAe?$AAx?$AAt?$AA?9?$AAm?$AAs?$AA?9?$AAw?$AAi?$AAn?$AA?9?$AAk?$AAe?$AAr?$AAn?$AAe?$AAl?$AA3?$AA2?$AA?9?$AAp?$AAa?$AAc?$AAk?$AAa?$AAg?$AAe?$AA?9?$AAc?$AAu?$AAr?$AAr@ 10025148     libucrt:winapi_thunks.obj
 0002:000021a0       ??_C@_1EG@DBIOJECG@?$AAe?$AAx?$AAt?$AA?9?$AAm?$AAs?$AA?9?$AAw?$AAi?$AAn?$AA?9?$AAn?$AAt?$AAu?$AAs?$AAe?$AAr?$AA?9?$AAd?$AAi?$AAa?$AAl?$AAo?$AAg?$AAb?$AAo?$AAx?$AA?9?$AAl?$AA1?$AA?9?$AA1@ 100251a0     libucrt:winapi_thunks.obj
 0002:000021e8       ??_C@_1EO@FIHMJCLF@?$AAe?$AAx?$AAt?$AA?9?$AAm?$AAs?$AA?9?$AAw?$AAi?$AAn?$AA?9?$AAn?$AAt?$AAu?$AAs?$AAe?$AAr?$AA?9?$AAw?$AAi?$AAn?$AAd?$AAo?$AAw?$AAs?$AAt?$AAa?$AAt?$AAi?$AAo?$AAn?$AA?9@ 100251e8     libucrt:winapi_thunks.obj
 0002:00002238       ??_C@_1O@BCCLBEOE@?$AAu?$AAs?$AAe?$AAr?$AA3?$AA2?$AA?$AA@ 10025238     libucrt:winapi_thunks.obj
 0002:00002250       ??_C@_0BA@IHGNDAEB@CompareStringEx?$AA@ 10025250     libucrt:winapi_thunks.obj
 0002:00002288       ??_C@_0BA@HNOPNCHB@GetActiveWindow?$AA@ 10025288     libucrt:winapi_thunks.obj
 0002:000022a0       ??_C@_0BE@JOGNEJCI@GetCurrentPackageId?$AA@ 100252a0     libucrt:winapi_thunks.obj
 0002:000022bc       ??_C@_0BD@HHGDFDBJ@GetLastActivePopup?$AA@ 100252bc     libucrt:winapi_thunks.obj
 0002:000022d8       ??_C@_0BI@DFKBFLJE@GetProcessWindowStation?$AA@ 100252d8     libucrt:winapi_thunks.obj
 0002:000022f8       ??_C@_0BK@DEKFELLI@GetUserObjectInformationW?$AA@ 100252f8     libucrt:winapi_thunks.obj
 0002:00002324       ??_C@_0O@KKBNKAPF@LCMapStringEx?$AA@ 10025324     libucrt:winapi_thunks.obj
 0002:0000233c       ??_C@_0BB@HBDEELFH@LocaleNameToLCID?$AA@ 1002533c     libucrt:winapi_thunks.obj
 0002:00002358       ??_C@_0M@CHKKJDAI@MessageBoxA?$AA@ 10025358     libucrt:winapi_thunks.obj
 0002:0000236c       ??_C@_0M@DLDCCGNP@MessageBoxW?$AA@ 1002536c     libucrt:winapi_thunks.obj
 0002:00002388       ??_C@_1M@HPNHIDJI@?$AAj?$AAa?$AA?9?$AAJ?$AAP?$AA?$AA@ 10025388     libucrt:mbctype.obj
 0002:00002394       ??_C@_1M@BIBDDEMK@?$AAz?$AAh?$AA?9?$AAC?$AAN?$AA?$AA@ 10025394     libucrt:mbctype.obj
 0002:000023a0       ??_C@_1M@JLOOOEGK@?$AAk?$AAo?$AA?9?$AAK?$AAR?$AA?$AA@ 100253a0     libucrt:mbctype.obj
 0002:000023ac       ??_C@_1M@CLNBBOPM@?$AAz?$AAh?$AA?9?$AAT?$AAW?$AA?$AA@ 100253ac     libucrt:mbctype.obj
 0002:000023b8       ??_C@_03OEIAHPBN@INF?$AA@  100253b8     libucrt:cvt.obj
 0002:000023bc       ??_C@_03OJHLLCGB@inf?$AA@  100253bc     libucrt:cvt.obj
 0002:000023c0       ??_C@_03LKNCIKJB@NAN?$AA@  100253c0     libucrt:cvt.obj
 0002:000023c4       ??_C@_03LHCJEHON@nan?$AA@  100253c4     libucrt:cvt.obj
 0002:000023c8       ??_C@_09OFJJIMPC@NAN?$CISNAN?$CJ?$AA@ 100253c8     libucrt:cvt.obj
 0002:000023d4       ??_C@_09IPFBKMDL@nan?$CIsnan?$CJ?$AA@ 100253d4     libucrt:cvt.obj
 0002:000023e0       ??_C@_08IKHNHAJ@NAN?$CIIND?$CJ?$AA@ 100253e0     libucrt:cvt.obj
 0002:000023ec       ??_C@_08OFCDMILK@nan?$CIind?$CJ?$AA@ 100253ec     libucrt:cvt.obj
 0002:000023f8       ??_C@_05KLBDPFGC@e?$CL000?$AA@ 100253f8     libucrt:cvt.obj
 0002:00002400       ??_C@_15PJPFLCCM@?$AAu?$AAk?$AA?$AA@ 10025400     libucrt:get_qualified_locale.obj
 0002:00002b28       ??_C@_15EMKDOKLE@?$AAa?$AAr?$AA?$AA@ 10025b28     libucrt:lcidtoname_downlevel.obj
 0002:00002b30       ??_C@_15KNPADPLH@?$AAb?$AAg?$AA?$AA@ 10025b30     libucrt:lcidtoname_downlevel.obj
 0002:00002b38       ??_C@_15EDMHLDMO@?$AAc?$AAa?$AA?$AA@ 10025b38     libucrt:lcidtoname_downlevel.obj
 0002:00002b40       ??_C@_1O@BPEAJADD@?$AAz?$AAh?$AA?9?$AAC?$AAH?$AAS?$AA?$AA@ 10025b40     libucrt:lcidtoname_downlevel.obj
 0002:00002b50       ??_C@_15LJNHCMNK@?$AAc?$AAs?$AA?$AA@ 10025b50     libucrt:lcidtoname_downlevel.obj
 0002:00002b58       ??_C@_15FOMCIDHG@?$AAd?$AAa?$AA?$AA@ 10025b58     libucrt:lcidtoname_downlevel.obj
 0002:00002b60       ??_C@_15NBKABECB@?$AAd?$AAe?$AA?$AA@ 10025b60     libucrt:lcidtoname_downlevel.obj
 0002:00002b68       ??_C@_15GHPEIIAO@?$AAe?$AAl?$AA?$AA@ 10025b68     libucrt:lcidtoname_downlevel.obj
 0002:00002b70       ??_C@_15MNPNEAIF@?$AAe?$AAn?$AA?$AA@ 10025b70     libucrt:lcidtoname_downlevel.obj
 0002:00002b78       ??_C@_15GPIOMPMH@?$AAe?$AAs?$AA?$AA@ 10025b78     libucrt:lcidtoname_downlevel.obj
 0002:00002b80       ??_C@_15NGLOAKJC@?$AAf?$AAi?$AA?$AA@ 10025b80     libucrt:lcidtoname_downlevel.obj
 0002:00002b88       ??_C@_15FBKGNKAM@?$AAf?$AAr?$AA?$AA@ 10025b88     libucrt:lcidtoname_downlevel.obj
 0002:00002b90       ??_C@_15KGGCNEFK@?$AAh?$AAe?$AA?$AA@ 10025b90     libucrt:lcidtoname_downlevel.obj
 0002:00002b98       ??_C@_15PGHLIDMF@?$AAh?$AAu?$AA?$AA@ 10025b98     libucrt:lcidtoname_downlevel.obj
 0002:00002ba0       ??_C@_15BIEMAPLM@?$AAi?$AAs?$AA?$AA@ 10025ba0     libucrt:lcidtoname_downlevel.obj
 0002:00002ba8       ??_C@_15IFJLDHAF@?$AAi?$AAt?$AA?$AA@ 10025ba8     libucrt:lcidtoname_downlevel.obj
 0002:00002bb0       ??_C@_15GEMIOCAG@?$AAj?$AAa?$AA?$AA@ 10025bb0     libucrt:lcidtoname_downlevel.obj
 0002:00002bb8       ??_C@_15EPELEGJA@?$AAk?$AAo?$AA?$AA@ 10025bb8     libucrt:lcidtoname_downlevel.obj
 0002:00002bc0       ??_C@_15NDDHIMN@?$AAn?$AAl?$AA?$AA@ 10025bc0     libucrt:lcidtoname_downlevel.obj
 0002:00002bc8       ??_C@_15BPIGNHCD@?$AAn?$AAo?$AA?$AA@ 10025bc8     libucrt:lcidtoname_downlevel.obj
 0002:00002bd0       ??_C@_15DEOPBLCG@?$AAp?$AAl?$AA?$AA@ 10025bd0     libucrt:lcidtoname_downlevel.obj
 0002:00002bd8       ??_C@_15KBECGEFG@?$AAp?$AAt?$AA?$AA@ 10025bd8     libucrt:lcidtoname_downlevel.obj
 0002:00002be0       ??_C@_15GLJCBFMD@?$AAr?$AAo?$AA?$AA@ 10025be0     libucrt:lcidtoname_downlevel.obj
 0002:00002be8       ??_C@_15FEDGKCDI@?$AAr?$AAu?$AA?$AA@ 10025be8     libucrt:lcidtoname_downlevel.obj
 0002:00002bf0       ??_C@_15GLKMLLHM@?$AAh?$AAr?$AA?$AA@ 10025bf0     libucrt:lcidtoname_downlevel.obj
 0002:00002bf8       ??_C@_15CPKMFBDB@?$AAs?$AAk?$AA?$AA@ 10025bf8     libucrt:lcidtoname_downlevel.obj
 0002:00002c00       ??_C@_15BAAIOGMK@?$AAs?$AAq?$AA?$AA@ 10025c00     libucrt:lcidtoname_downlevel.obj
 0002:00002c08       ??_C@_15INNPNOHD@?$AAs?$AAv?$AA?$AA@ 10025c08     libucrt:lcidtoname_downlevel.obj
 0002:00002c10       ??_C@_15CABMMOGH@?$AAt?$AAh?$AA?$AA@ 10025c10     libucrt:lcidtoname_downlevel.obj
 0002:00002c18       ??_C@_15BPLIHJJM@?$AAt?$AAr?$AA?$AA@ 10025c18     libucrt:lcidtoname_downlevel.obj
 0002:00002c20       ??_C@_15NEOEKKDJ@?$AAu?$AAr?$AA?$AA@ 10025c20     libucrt:lcidtoname_downlevel.obj
 0002:00002c28       ??_C@_15NFICGAJK@?$AAi?$AAd?$AA?$AA@ 10025c28     libucrt:lcidtoname_downlevel.obj
 0002:00002c30       ??_C@_15HPJPHDM@?$AAb?$AAe?$AA?$AA@ 10025c30     libucrt:lcidtoname_downlevel.obj
 0002:00002c38       ??_C@_15LCHLGJII@?$AAs?$AAl?$AA?$AA@ 10025c38     libucrt:lcidtoname_downlevel.obj
 0002:00002c40       ??_C@_15PCFJPHHO@?$AAe?$AAt?$AA?$AA@ 10025c40     libucrt:lcidtoname_downlevel.obj
 0002:00002c48       ??_C@_15HPFPGODN@?$AAl?$AAv?$AA?$AA@ 10025c48     libucrt:lcidtoname_downlevel.obj
 0002:00002c50       ??_C@_15NFFGKGLG@?$AAl?$AAt?$AA?$AA@ 10025c50     libucrt:lcidtoname_downlevel.obj
 0002:00002c58       ??_C@_15BDAKCCHN@?$AAf?$AAa?$AA?$AA@ 10025c58     libucrt:lcidtoname_downlevel.obj
 0002:00002c60       ??_C@_15NFGIAIAJ@?$AAv?$AAi?$AA?$AA@ 10025c60     libucrt:lcidtoname_downlevel.obj
 0002:00002c68       ??_C@_15LMKNDMHN@?$AAh?$AAy?$AA?$AA@ 10025c68     libucrt:lcidtoname_downlevel.obj
 0002:00002c70       ??_C@_15IJBHMCFL@?$AAa?$AAz?$AA?$AA@ 10025c70     libucrt:lcidtoname_downlevel.obj
 0002:00002c78       ??_C@_15EKOFJABL@?$AAe?$AAu?$AA?$AA@ 10025c78     libucrt:lcidtoname_downlevel.obj
 0002:00002c80       ??_C@_15BGHADCNK@?$AAm?$AAk?$AA?$AA@ 10025c80     libucrt:lcidtoname_downlevel.obj
 0002:00002c88       ??_C@_15JDNICKHM@?$AAa?$AAf?$AA?$AA@ 10025c88     libucrt:lcidtoname_downlevel.obj
 0002:00002c90       ??_C@_15KPJEDBKD@?$AAk?$AAa?$AA?$AA@ 10025c90     libucrt:lcidtoname_downlevel.obj
 0002:00002c98       ??_C@_15PDNFFFEO@?$AAf?$AAo?$AA?$AA@ 10025c98     libucrt:lcidtoname_downlevel.obj
 0002:00002ca0       ??_C@_15OMLEGLOC@?$AAh?$AAi?$AA?$AA@ 10025ca0     libucrt:lcidtoname_downlevel.obj
 0002:00002ca8       ??_C@_15IDNNENKK@?$AAm?$AAs?$AA?$AA@ 10025ca8     libucrt:lcidtoname_downlevel.obj
 0002:00002cb0       ??_C@_15MACJNBMH@?$AAk?$AAk?$AA?$AA@ 10025cb0     libucrt:lcidtoname_downlevel.obj
 0002:00002cb8       ??_C@_15DKDJEOND@?$AAk?$AAy?$AA?$AA@ 10025cb8     libucrt:lcidtoname_downlevel.obj
 0002:00002cc0       ??_C@_15DFGDLJBG@?$AAs?$AAw?$AA?$AA@ 10025cc0     libucrt:lcidtoname_downlevel.obj
 0002:00002cc8       ??_C@_15BBFAICNG@?$AAu?$AAz?$AA?$AA@ 10025cc8     libucrt:lcidtoname_downlevel.obj
 0002:00002cd0       ??_C@_15DKNDCGEA@?$AAt?$AAt?$AA?$AA@ 10025cd0     libucrt:lcidtoname_downlevel.obj
 0002:00002cd8       ??_C@_15MGIFMDPL@?$AAp?$AAa?$AA?$AA@ 10025cd8     libucrt:lcidtoname_downlevel.obj
 0002:00002ce0       ??_C@_15HCNDBBA@?$AAg?$AAu?$AA?$AA@ 10025ce0     libucrt:lcidtoname_downlevel.obj
 0002:00002ce8       ??_C@_15FNBEIBON@?$AAt?$AAa?$AA?$AA@ 10025ce8     libucrt:lcidtoname_downlevel.obj
 0002:00002cf0       ??_C@_15NCHGBGLK@?$AAt?$AAe?$AA?$AA@ 10025cf0     libucrt:lcidtoname_downlevel.obj
 0002:00002cf8       ??_C@_15PHPHCBPF@?$AAk?$AAn?$AA?$AA@ 10025cf8     libucrt:lcidtoname_downlevel.obj
 0002:00002d00       ??_C@_15DLGBCKMP@?$AAm?$AAr?$AA?$AA@ 10025d00     libucrt:lcidtoname_downlevel.obj
 0002:00002d08       ??_C@_15EABBLBFF@?$AAs?$AAa?$AA?$AA@ 10025d08     libucrt:lcidtoname_downlevel.obj
 0002:00002d10       ??_C@_15CBKOMCOI@?$AAm?$AAn?$AA?$AA@ 10025d10     libucrt:lcidtoname_downlevel.obj
 0002:00002d18       ??_C@_15CKDMCJAF@?$AAg?$AAl?$AA?$AA@ 10025d18     libucrt:lcidtoname_downlevel.obj
 0002:00002d20       ??_C@_17CNJFBPG@?$AAk?$AAo?$AAk?$AA?$AA@ 10025d20     libucrt:lcidtoname_downlevel.obj
 0002:00002d28       ??_C@_17FFBJICPL@?$AAs?$AAy?$AAr?$AA?$AA@ 10025d28     libucrt:lcidtoname_downlevel.obj
 0002:00002d30       ??_C@_17KPNDCPAF@?$AAd?$AAi?$AAv?$AA?$AA@ 10025d30     libucrt:lcidtoname_downlevel.obj
 0002:00002d38       ??_C@_1M@OKAHONE@?$AAa?$AAr?$AA?9?$AAS?$AAA?$AA?$AA@ 10025d38     libucrt:lcidtoname_downlevel.obj
 0002:00002d44       ??_C@_1M@FFFIGIGK@?$AAb?$AAg?$AA?9?$AAB?$AAG?$AA?$AA@ 10025d44     libucrt:lcidtoname_downlevel.obj
 0002:00002d50       ??_C@_1M@BJNKEDC@?$AAc?$AAa?$AA?9?$AAE?$AAS?$AA?$AA@ 10025d50     libucrt:lcidtoname_downlevel.obj
 0002:00002d5c       ??_C@_1M@IJJHFJHA@?$AAc?$AAs?$AA?9?$AAC?$AAZ?$AA?$AA@ 10025d5c     libucrt:lcidtoname_downlevel.obj
 0002:00002d68       ??_C@_1M@CLPEOBGI@?$AAd?$AAa?$AA?9?$AAD?$AAK?$AA?$AA@ 10025d68     libucrt:lcidtoname_downlevel.obj
 0002:00002d74       ??_C@_1M@MCMADGCB@?$AAd?$AAe?$AA?9?$AAD?$AAE?$AA?$AA@ 10025d74     libucrt:lcidtoname_downlevel.obj
 0002:00002d80       ??_C@_1M@OOCKEMAM@?$AAe?$AAl?$AA?9?$AAG?$AAR?$AA?$AA@ 10025d80     libucrt:lcidtoname_downlevel.obj
 0002:00002d8c       ??_C@_1M@DDNJFGID@?$AAf?$AAi?$AA?9?$AAF?$AAI?$AA?$AA@ 10025d8c     libucrt:lcidtoname_downlevel.obj
 0002:00002d98       ??_C@_1M@GLIPPMAC@?$AAf?$AAr?$AA?9?$AAF?$AAR?$AA?$AA@ 10025d98     libucrt:lcidtoname_downlevel.obj
 0002:00002da4       ??_C@_1M@GFMCHPE@?$AAh?$AAe?$AA?9?$AAI?$AAL?$AA?$AA@ 10025da4     libucrt:lcidtoname_downlevel.obj
 0002:00002db0       ??_C@_1M@MHLPGNKM@?$AAh?$AAu?$AA?9?$AAH?$AAU?$AA?$AA@ 10025db0     libucrt:lcidtoname_downlevel.obj
 0002:00002dbc       ??_C@_1M@LPDDNNPN@?$AAi?$AAs?$AA?9?$AAI?$AAS?$AA?$AA@ 10025dbc     libucrt:lcidtoname_downlevel.obj
 0002:00002dc8       ??_C@_1M@MADIPODN@?$AAi?$AAt?$AA?9?$AAI?$AAT?$AA?$AA@ 10025dc8     libucrt:lcidtoname_downlevel.obj
 0002:00002dd4       ??_C@_1M@IHBJJGG@?$AAn?$AAl?$AA?9?$AAN?$AAL?$AA?$AA@ 10025dd4     libucrt:lcidtoname_downlevel.obj
 0002:00002de0       ??_C@_1M@EANAGDL@?$AAn?$AAb?$AA?9?$AAN?$AAO?$AA?$AA@ 10025de0     libucrt:lcidtoname_downlevel.obj
 0002:00002dec       ??_C@_1M@NEIEMEGP@?$AAp?$AAl?$AA?9?$AAP?$AAL?$AA?$AA@ 10025dec     libucrt:lcidtoname_downlevel.obj
 0002:00002df8       ??_C@_1M@BOCFIGEP@?$AAp?$AAt?$AA?9?$AAB?$AAR?$AA?$AA@ 10025df8     libucrt:lcidtoname_downlevel.obj
 0002:00002e04       ??_C@_1M@IMPFOPBG@?$AAr?$AAo?$AA?9?$AAR?$AAO?$AA?$AA@ 10025e04     libucrt:lcidtoname_downlevel.obj
 0002:00002e10       ??_C@_1M@IDNNEJMM@?$AAr?$AAu?$AA?9?$AAR?$AAU?$AA?$AA@ 10025e10     libucrt:lcidtoname_downlevel.obj
 0002:00002e1c       ??_C@_1M@LILEEOGM@?$AAh?$AAr?$AA?9?$AAH?$AAR?$AA?$AA@ 10025e1c     libucrt:lcidtoname_downlevel.obj
 0002:00002e28       ??_C@_1M@FKIFEHPB@?$AAs?$AAk?$AA?9?$AAS?$AAK?$AA?$AA@ 10025e28     libucrt:lcidtoname_downlevel.obj
 0002:00002e34       ??_C@_1M@LJMAMNPJ@?$AAs?$AAq?$AA?9?$AAA?$AAL?$AA?$AA@ 10025e34     libucrt:lcidtoname_downlevel.obj
 0002:00002e40       ??_C@_1M@GIAKDKJK@?$AAs?$AAv?$AA?9?$AAS?$AAE?$AA?$AA@ 10025e40     libucrt:lcidtoname_downlevel.obj
 0002:00002e4c       ??_C@_1M@MKJKIKCL@?$AAt?$AAh?$AA?9?$AAT?$AAH?$AA?$AA@ 10025e4c     libucrt:lcidtoname_downlevel.obj
 0002:00002e58       ??_C@_1M@MFLCCMPB@?$AAt?$AAr?$AA?9?$AAT?$AAR?$AA?$AA@ 10025e58     libucrt:lcidtoname_downlevel.obj
 0002:00002e64       ??_C@_1M@OIJHDKJN@?$AAu?$AAr?$AA?9?$AAP?$AAK?$AA?$AA@ 10025e64     libucrt:lcidtoname_downlevel.obj
 0002:00002e70       ??_C@_1M@LHIPCIEK@?$AAi?$AAd?$AA?9?$AAI?$AAD?$AA?$AA@ 10025e70     libucrt:lcidtoname_downlevel.obj
 0002:00002e7c       ??_C@_1M@MFMOBGI@?$AAu?$AAk?$AA?9?$AAU?$AAA?$AA?$AA@ 10025e7c     libucrt:lcidtoname_downlevel.obj
 0002:00002e88       ??_C@_1M@OBGLJIPL@?$AAb?$AAe?$AA?9?$AAB?$AAY?$AA?$AA@ 10025e88     libucrt:lcidtoname_downlevel.obj
 0002:00002e94       ??_C@_1M@BCFAJEAD@?$AAs?$AAl?$AA?9?$AAS?$AAI?$AA?$AA@ 10025e94     libucrt:lcidtoname_downlevel.obj
 0002:00002ea0       ??_C@_1M@FKFFEDDN@?$AAe?$AAt?$AA?9?$AAE?$AAE?$AA?$AA@ 10025ea0     libucrt:lcidtoname_downlevel.obj
 0002:00002eac       ??_C@_1M@KGKKAACI@?$AAl?$AAv?$AA?9?$AAL?$AAV?$AA?$AA@ 10025eac     libucrt:lcidtoname_downlevel.obj
 0002:00002eb8       ??_C@_1M@IFGBIJO@?$AAl?$AAt?$AA?9?$AAL?$AAT?$AA?$AA@ 10025eb8     libucrt:lcidtoname_downlevel.obj
 0002:00002ec4       ??_C@_1M@FGEAHEDM@?$AAf?$AAa?$AA?9?$AAI?$AAR?$AA?$AA@ 10025ec4     libucrt:lcidtoname_downlevel.obj
 0002:00002ed0       ??_C@_1M@KBMAIBFN@?$AAv?$AAi?$AA?9?$AAV?$AAN?$AA?$AA@ 10025ed0     libucrt:lcidtoname_downlevel.obj
 0002:00002edc       ??_C@_1M@GPCBKDJK@?$AAh?$AAy?$AA?9?$AAA?$AAM?$AA?$AA@ 10025edc     libucrt:lcidtoname_downlevel.obj
 0002:00002ee8       ??_C@_1BG@BECMDDJB@?$AAa?$AAz?$AA?9?$AAA?$AAZ?$AA?9?$AAL?$AAa?$AAt?$AAn?$AA?$AA@ 10025ee8     libucrt:lcidtoname_downlevel.obj
 0002:00002f00       ??_C@_1M@MAOFCAEA@?$AAe?$AAu?$AA?9?$AAE?$AAS?$AA?$AA@ 10025f00     libucrt:lcidtoname_downlevel.obj
 0002:00002f0c       ??_C@_1M@IGHABKPI@?$AAm?$AAk?$AA?9?$AAM?$AAK?$AA?$AA@ 10025f0c     libucrt:lcidtoname_downlevel.obj
 0002:00002f18       ??_C@_1M@IAIGNEJG@?$AAt?$AAn?$AA?9?$AAZ?$AAA?$AA?$AA@ 10025f18     libucrt:lcidtoname_downlevel.obj
 0002:00002f24       ??_C@_1M@IIJCOJFA@?$AAx?$AAh?$AA?9?$AAZ?$AAA?$AA?$AA@ 10025f24     libucrt:lcidtoname_downlevel.obj
 0002:00002f30       ??_C@_1M@LGPJHNJH@?$AAz?$AAu?$AA?9?$AAZ?$AAA?$AA?$AA@ 10025f30     libucrt:lcidtoname_downlevel.obj
 0002:00002f3c       ??_C@_1M@HOKAOIO@?$AAa?$AAf?$AA?9?$AAZ?$AAA?$AA?$AA@ 10025f3c     libucrt:lcidtoname_downlevel.obj
 0002:00002f48       ??_C@_1M@DPCLHLIE@?$AAk?$AAa?$AA?9?$AAG?$AAE?$AA?$AA@ 10025f48     libucrt:lcidtoname_downlevel.obj
 0002:00002f54       ??_C@_1M@BLKMHJBI@?$AAf?$AAo?$AA?9?$AAF?$AAO?$AA?$AA@ 10025f54     libucrt:lcidtoname_downlevel.obj
 0002:00002f60       ??_C@_1M@LGGJAPPB@?$AAh?$AAi?$AA?9?$AAI?$AAN?$AA?$AA@ 10025f60     libucrt:lcidtoname_downlevel.obj
 0002:00002f6c       ??_C@_1M@FIKPIHFE@?$AAm?$AAt?$AA?9?$AAM?$AAT?$AA?$AA@ 10025f6c     libucrt:lcidtoname_downlevel.obj
 0002:00002f78       ??_C@_1M@HEGGPBFA@?$AAs?$AAe?$AA?9?$AAN?$AAO?$AA?$AA@ 10025f78     libucrt:lcidtoname_downlevel.obj
 0002:00002f84       ??_C@_1M@EIBJEEPA@?$AAm?$AAs?$AA?9?$AAM?$AAY?$AA?$AA@ 10025f84     libucrt:lcidtoname_downlevel.obj
 0002:00002f90       ??_C@_1M@FHLBGMPP@?$AAk?$AAk?$AA?9?$AAK?$AAZ?$AA?$AA@ 10025f90     libucrt:lcidtoname_downlevel.obj
 0002:00002f9c       ??_C@_1M@NGJJLCGI@?$AAk?$AAy?$AA?9?$AAK?$AAG?$AA?$AA@ 10025f9c     libucrt:lcidtoname_downlevel.obj
 0002:00002fa8       ??_C@_1M@GIENNBFC@?$AAs?$AAw?$AA?9?$AAK?$AAE?$AA?$AA@ 10025fa8     libucrt:lcidtoname_downlevel.obj
 0002:00002fb4       ??_C@_1BG@NDGMJIMJ@?$AAu?$AAz?$AA?9?$AAU?$AAZ?$AA?9?$AAL?$AAa?$AAt?$AAn?$AA?$AA@ 10025fb4     libucrt:lcidtoname_downlevel.obj
 0002:00002fcc       ??_C@_1M@IDCCIHBC@?$AAt?$AAt?$AA?9?$AAR?$AAU?$AA?$AA@ 10025fcc     libucrt:lcidtoname_downlevel.obj
 0002:00002fd8       ??_C@_1M@LOICPMOJ@?$AAb?$AAn?$AA?9?$AAI?$AAN?$AA?$AA@ 10025fd8     libucrt:lcidtoname_downlevel.obj
 0002:00002fe4       ??_C@_1M@KPKKNEAH@?$AAp?$AAa?$AA?9?$AAI?$AAN?$AA?$AA@ 10025fe4     libucrt:lcidtoname_downlevel.obj
 0002:00002ff0       ??_C@_1M@PJGPPBOG@?$AAg?$AAu?$AA?9?$AAI?$AAN?$AA?$AA@ 10025ff0     libucrt:lcidtoname_downlevel.obj
 0002:00002ffc       ??_C@_1M@KMKMOPHI@?$AAt?$AAa?$AA?9?$AAI?$AAN?$AA?$AA@ 10025ffc     libucrt:lcidtoname_downlevel.obj
 0002:00003008       ??_C@_1M@KFEHEPAC@?$AAt?$AAe?$AA?9?$AAI?$AAN?$AA?$AA@ 10026008     libucrt:lcidtoname_downlevel.obj
 0002:00003014       ??_C@_1M@CDCLMGHI@?$AAk?$AAn?$AA?9?$AAI?$AAN?$AA?$AA@ 10026014     libucrt:lcidtoname_downlevel.obj
 0002:00003020       ??_C@_1M@MIODLDKF@?$AAm?$AAl?$AA?9?$AAI?$AAN?$AA?$AA@ 10026020     libucrt:lcidtoname_downlevel.obj
 0002:0000302c       ??_C@_1M@PBIEACPO@?$AAm?$AAr?$AA?9?$AAI?$AAN?$AA?$AA@ 1002602c     libucrt:lcidtoname_downlevel.obj
 0002:00003038       ??_C@_1M@NIDEAGPH@?$AAs?$AAa?$AA?9?$AAI?$AAN?$AA?$AA@ 10026038     libucrt:lcidtoname_downlevel.obj
 0002:00003044       ??_C@_1M@FHIHCBIO@?$AAm?$AAn?$AA?9?$AAM?$AAN?$AA?$AA@ 10026044     libucrt:lcidtoname_downlevel.obj
 0002:00003050       ??_C@_1M@JAIJPENP@?$AAc?$AAy?$AA?9?$AAG?$AAB?$AA?$AA@ 10026050     libucrt:lcidtoname_downlevel.obj
 0002:0000305c       ??_C@_1M@PHGFBEPN@?$AAg?$AAl?$AA?9?$AAE?$AAS?$AA?$AA@ 1002605c     libucrt:lcidtoname_downlevel.obj
 0002:00003068       ??_C@_1O@KPIPDNCP@?$AAk?$AAo?$AAk?$AA?9?$AAI?$AAN?$AA?$AA@ 10026068     libucrt:lcidtoname_downlevel.obj
 0002:00003078       ??_C@_1O@KNHJLDJA@?$AAs?$AAy?$AAr?$AA?9?$AAS?$AAY?$AA?$AA@ 10026078     libucrt:lcidtoname_downlevel.obj
 0002:00003088       ??_C@_1O@MKEKBLAH@?$AAd?$AAi?$AAv?$AA?9?$AAM?$AAV?$AA?$AA@ 10026088     libucrt:lcidtoname_downlevel.obj
 0002:00003098       ??_C@_1O@OHDCKDDF@?$AAq?$AAu?$AAz?$AA?9?$AAB?$AAO?$AA?$AA@ 10026098     libucrt:lcidtoname_downlevel.obj
 0002:000030a8       ??_C@_1M@LEPJNLFD@?$AAn?$AAs?$AA?9?$AAZ?$AAA?$AA?$AA@ 100260a8     libucrt:lcidtoname_downlevel.obj
 0002:000030b4       ??_C@_1M@OMLEIIJB@?$AAm?$AAi?$AA?9?$AAN?$AAZ?$AA?$AA@ 100260b4     libucrt:lcidtoname_downlevel.obj
 0002:000030c0       ??_C@_1M@PMPEAILG@?$AAa?$AAr?$AA?9?$AAI?$AAQ?$AA?$AA@ 100260c0     libucrt:lcidtoname_downlevel.obj
 0002:000030cc       ??_C@_1M@CNKPNOEE@?$AAd?$AAe?$AA?9?$AAC?$AAH?$AA?$AA@ 100260cc     libucrt:lcidtoname_downlevel.obj
 0002:000030d8       ??_C@_1M@LKMGMLKO@?$AAe?$AAn?$AA?9?$AAG?$AAB?$AA?$AA@ 100260d8     libucrt:lcidtoname_downlevel.obj
 0002:000030e4       ??_C@_1M@PGKJFFGL@?$AAe?$AAs?$AA?9?$AAM?$AAX?$AA?$AA@ 100260e4     libucrt:lcidtoname_downlevel.obj
 0002:000030f0       ??_C@_1M@DNNANBDC@?$AAf?$AAr?$AA?9?$AAB?$AAE?$AA?$AA@ 100260f0     libucrt:lcidtoname_downlevel.obj
 0002:000030fc       ??_C@_1M@HLGMDFHM@?$AAi?$AAt?$AA?9?$AAC?$AAH?$AA?$AA@ 100260fc     libucrt:lcidtoname_downlevel.obj
 0002:00003108       ??_C@_1M@CLLBGJH@?$AAn?$AAl?$AA?9?$AAB?$AAE?$AA?$AA@ 10026108     libucrt:lcidtoname_downlevel.obj
 0002:00003114       ??_C@_1M@BODBOGLF@?$AAn?$AAn?$AA?9?$AAN?$AAO?$AA?$AA@ 10026114     libucrt:lcidtoname_downlevel.obj
 0002:00003120       ??_C@_1M@HFFAHKAD@?$AAp?$AAt?$AA?9?$AAP?$AAT?$AA?$AA@ 10026120     libucrt:lcidtoname_downlevel.obj
 0002:0000312c       ??_C@_1BG@LNOAKHIE@?$AAs?$AAr?$AA?9?$AAS?$AAP?$AA?9?$AAL?$AAa?$AAt?$AAn?$AA?$AA@ 1002612c     libucrt:lcidtoname_downlevel.obj
 0002:00003144       ??_C@_1M@HBMHBGAK@?$AAs?$AAv?$AA?9?$AAF?$AAI?$AA?$AA@ 10026144     libucrt:lcidtoname_downlevel.obj
 0002:00003150       ??_C@_1BG@DGCJGJBE@?$AAa?$AAz?$AA?9?$AAA?$AAZ?$AA?9?$AAC?$AAy?$AAr?$AAl?$AA?$AA@ 10026150     libucrt:lcidtoname_downlevel.obj
 0002:00003168       ??_C@_1M@KEJDAAHB@?$AAs?$AAe?$AA?9?$AAS?$AAE?$AA?$AA@ 10026168     libucrt:lcidtoname_downlevel.obj
 0002:00003174       ??_C@_1M@HEIBJJAD@?$AAm?$AAs?$AA?9?$AAB?$AAN?$AA?$AA@ 10026174     libucrt:lcidtoname_downlevel.obj
 0002:00003180       ??_C@_1BG@PBGJMCEM@?$AAu?$AAz?$AA?9?$AAU?$AAZ?$AA?9?$AAC?$AAy?$AAr?$AAl?$AA?$AA@ 10026180     libucrt:lcidtoname_downlevel.obj
 0002:00003198       ??_C@_1O@LAOBCMDF@?$AAq?$AAu?$AAz?$AA?9?$AAE?$AAC?$AA?$AA@ 10026198     libucrt:lcidtoname_downlevel.obj
 0002:000031a8       ??_C@_1M@POEEMAIO@?$AAa?$AAr?$AA?9?$AAE?$AAG?$AA?$AA@ 100261a8     libucrt:lcidtoname_downlevel.obj
 0002:000031b4       ??_C@_1M@EFAKDEDL@?$AAz?$AAh?$AA?9?$AAH?$AAK?$AA?$AA@ 100261b4     libucrt:lcidtoname_downlevel.obj
 0002:000031c0       ??_C@_1M@HKKIJHGI@?$AAd?$AAe?$AA?9?$AAA?$AAT?$AA?$AA@ 100261c0     libucrt:lcidtoname_downlevel.obj
 0002:000031cc       ??_C@_1M@KBFBEHJF@?$AAe?$AAn?$AA?9?$AAA?$AAU?$AA?$AA@ 100261cc     libucrt:lcidtoname_downlevel.obj
 0002:000031d8       ??_C@_1M@MNPLFAAH@?$AAe?$AAs?$AA?9?$AAE?$AAS?$AA?$AA@ 100261d8     libucrt:lcidtoname_downlevel.obj
 0002:000031e4       ??_C@_1M@HJOOJFMA@?$AAf?$AAr?$AA?9?$AAC?$AAA?$AA?$AA@ 100261e4     libucrt:lcidtoname_downlevel.obj
 0002:000031f0       ??_C@_1BG@JPOFPNAB@?$AAs?$AAr?$AA?9?$AAS?$AAP?$AA?9?$AAC?$AAy?$AAr?$AAl?$AA?$AA@ 100261f0     libucrt:lcidtoname_downlevel.obj
 0002:00003208       ??_C@_1M@LNFOCMOB@?$AAs?$AAe?$AA?9?$AAF?$AAI?$AA?$AA@ 10026208     libucrt:lcidtoname_downlevel.obj
 0002:00003214       ??_C@_1O@MGJBOAMB@?$AAq?$AAu?$AAz?$AA?9?$AAP?$AAE?$AA?$AA@ 10026214     libucrt:lcidtoname_downlevel.obj
 0002:00003224       ??_C@_1M@GJINLBOK@?$AAa?$AAr?$AA?9?$AAL?$AAY?$AA?$AA@ 10026224     libucrt:lcidtoname_downlevel.obj
 0002:00003230       ??_C@_1M@GGMNHJNL@?$AAz?$AAh?$AA?9?$AAS?$AAG?$AA?$AA@ 10026230     libucrt:lcidtoname_downlevel.obj
 0002:0000323c       ??_C@_1M@HOIKODND@?$AAd?$AAe?$AA?9?$AAL?$AAU?$AA?$AA@ 1002623c     libucrt:lcidtoname_downlevel.obj
 0002:00003248       ??_C@_1M@DDOCCGFG@?$AAe?$AAn?$AA?9?$AAC?$AAA?$AA?$AA@ 10026248     libucrt:lcidtoname_downlevel.obj
 0002:00003254       ??_C@_1M@BNOEMJLF@?$AAe?$AAs?$AA?9?$AAG?$AAT?$AA?$AA@ 10026254     libucrt:lcidtoname_downlevel.obj
 0002:00003260       ??_C@_1M@EOGNKEK@?$AAf?$AAr?$AA?9?$AAC?$AAH?$AA?$AA@ 10026260     libucrt:lcidtoname_downlevel.obj
 0002:0000326c       ??_C@_1M@FLIDJFHL@?$AAh?$AAr?$AA?9?$AAB?$AAA?$AA?$AA@ 1002626c     libucrt:lcidtoname_downlevel.obj
 0002:00003278       ??_C@_1O@FMCELNAJ@?$AAs?$AAm?$AAj?$AA?9?$AAN?$AAO?$AA?$AA@ 10026278     libucrt:lcidtoname_downlevel.obj
 0002:00003288       ??_C@_1M@JHGLJMGJ@?$AAa?$AAr?$AA?9?$AAD?$AAZ?$AA?$AA@ 10026288     libucrt:lcidtoname_downlevel.obj
 0002:00003294       ??_C@_1M@JKKFDCNP@?$AAz?$AAh?$AA?9?$AAM?$AAO?$AA?$AA@ 10026294     libucrt:lcidtoname_downlevel.obj
 0002:000032a0       ??_C@_1M@GEEFALPE@?$AAd?$AAe?$AA?9?$AAL?$AAI?$AA?$AA@ 100262a0     libucrt:lcidtoname_downlevel.obj
 0002:000032ac       ??_C@_1M@IGEOFBG@?$AAe?$AAn?$AA?9?$AAN?$AAZ?$AA?$AA@ 100262ac     libucrt:lcidtoname_downlevel.obj
 0002:000032b8       ??_C@_1M@KDBONEHP@?$AAe?$AAs?$AA?9?$AAC?$AAR?$AA?$AA@ 100262b8     libucrt:lcidtoname_downlevel.obj
 0002:000032c4       ??_C@_1M@FHMDOHNN@?$AAf?$AAr?$AA?9?$AAL?$AAU?$AA?$AA@ 100262c4     libucrt:lcidtoname_downlevel.obj
 0002:000032d0       ??_C@_1BG@NFKKMAFG@?$AAb?$AAs?$AA?9?$AAB?$AAA?$AA?9?$AAL?$AAa?$AAt?$AAn?$AA?$AA@ 100262d0     libucrt:lcidtoname_downlevel.obj
 0002:000032e8       ??_C@_1O@IMNBEMCI@?$AAs?$AAm?$AAj?$AA?9?$AAS?$AAE?$AA?$AA@ 100262e8     libucrt:lcidtoname_downlevel.obj
 0002:000032f8       ??_C@_1M@DHHMBNDP@?$AAa?$AAr?$AA?9?$AAM?$AAA?$AA?$AA@ 100262f8     libucrt:lcidtoname_downlevel.obj
 0002:00003304       ??_C@_1M@BNBLJCGH@?$AAe?$AAn?$AA?9?$AAI?$AAE?$AA?$AA@ 10026304     libucrt:lcidtoname_downlevel.obj
 0002:00003310       ??_C@_1M@GEPAFMDL@?$AAe?$AAs?$AA?9?$AAP?$AAA?$AA?$AA@ 10026310     libucrt:lcidtoname_downlevel.obj
 0002:0000331c       ??_C@_1M@OJONDMDL@?$AAf?$AAr?$AA?9?$AAM?$AAC?$AA?$AA@ 1002631c     libucrt:lcidtoname_downlevel.obj
 0002:00003328       ??_C@_1BG@OBCNFJB@?$AAs?$AAr?$AA?9?$AAB?$AAA?$AA?9?$AAL?$AAa?$AAt?$AAn?$AA?$AA@ 10026328     libucrt:lcidtoname_downlevel.obj
 0002:00003340       ??_C@_1O@KEMEEGPO@?$AAs?$AAm?$AAa?$AA?9?$AAN?$AAO?$AA?$AA@ 10026340     libucrt:lcidtoname_downlevel.obj
 0002:00003350       ??_C@_1M@ELMGFODK@?$AAa?$AAr?$AA?9?$AAT?$AAN?$AA?$AA@ 10026350     libucrt:lcidtoname_downlevel.obj
 0002:0000335c       ??_C@_1M@BHDLHFAF@?$AAe?$AAn?$AA?9?$AAZ?$AAA?$AA?$AA@ 1002635c     libucrt:lcidtoname_downlevel.obj
 0002:00003368       ??_C@_1M@BMGIGLIF@?$AAe?$AAs?$AA?9?$AAD?$AAO?$AA?$AA@ 10026368     libucrt:lcidtoname_downlevel.obj
 0002:00003374       ??_C@_1BG@CMBHIPBE@?$AAs?$AAr?$AA?9?$AAB?$AAA?$AA?9?$AAC?$AAy?$AAr?$AAl?$AA?$AA@ 10026374     libucrt:lcidtoname_downlevel.obj
 0002:0000338c       ??_C@_1O@HEDBLHNP@?$AAs?$AAm?$AAa?$AA?9?$AAS?$AAE?$AA?$AA@ 1002638c     libucrt:lcidtoname_downlevel.obj
 0002:0000339c       ??_C@_1M@DAGCADIM@?$AAa?$AAr?$AA?9?$AAO?$AAM?$AA?$AA@ 1002639c     libucrt:lcidtoname_downlevel.obj
 0002:000033a8       ??_C@_1M@FODLMICG@?$AAe?$AAn?$AA?9?$AAJ?$AAM?$AA?$AA@ 100263a8     libucrt:lcidtoname_downlevel.obj
 0002:000033b4       ??_C@_1M@DNMLCIHB@?$AAe?$AAs?$AA?9?$AAV?$AAE?$AA?$AA@ 100263b4     libucrt:lcidtoname_downlevel.obj
 0002:000033c0       ??_C@_1O@EOKHMKJK@?$AAs?$AAm?$AAs?$AA?9?$AAF?$AAI?$AA?$AA@ 100263c0     libucrt:lcidtoname_downlevel.obj
 0002:000033d0       ??_C@_1M@CAFJMKOF@?$AAa?$AAr?$AA?9?$AAY?$AAE?$AA?$AA@ 100263d0     libucrt:lcidtoname_downlevel.obj
 0002:000033dc       ??_C@_1M@CBFHIJLI@?$AAe?$AAn?$AA?9?$AAC?$AAB?$AA?$AA@ 100263dc     libucrt:lcidtoname_downlevel.obj
 0002:000033e8       ??_C@_1M@BGNFLDN@?$AAe?$AAs?$AA?9?$AAC?$AAO?$AA?$AA@ 100263e8     libucrt:lcidtoname_downlevel.obj
 0002:000033f4       ??_C@_1O@JMPHMAMC@?$AAs?$AAm?$AAn?$AA?9?$AAF?$AAI?$AA?$AA@ 100263f4     libucrt:lcidtoname_downlevel.obj
 0002:00003404       ??_C@_1M@JLANABKE@?$AAa?$AAr?$AA?9?$AAS?$AAY?$AA?$AA@ 10026404     libucrt:lcidtoname_downlevel.obj
 0002:00003410       ??_C@_1M@HPKGCFGN@?$AAe?$AAn?$AA?9?$AAB?$AAZ?$AA?$AA@ 10026410     libucrt:lcidtoname_downlevel.obj
 0002:0000341c       ??_C@_1M@OLJCMLGM@?$AAe?$AAs?$AA?9?$AAP?$AAE?$AA?$AA@ 1002641c     libucrt:lcidtoname_downlevel.obj
 0002:00003428       ??_C@_1M@MKKGFKLE@?$AAa?$AAr?$AA?9?$AAJ?$AAO?$AA?$AA@ 10026428     libucrt:lcidtoname_downlevel.obj
 0002:00003434       ??_C@_1M@EKPGLDNI@?$AAe?$AAn?$AA?9?$AAT?$AAT?$AA?$AA@ 10026434     libucrt:lcidtoname_downlevel.obj
 0002:00003440       ??_C@_1M@OONGHFHE@?$AAe?$AAs?$AA?9?$AAA?$AAR?$AA?$AA@ 10026440     libucrt:lcidtoname_downlevel.obj
 0002:0000344c       ??_C@_1M@OOJFGBHE@?$AAa?$AAr?$AA?9?$AAL?$AAB?$AA?$AA@ 1002644c     libucrt:lcidtoname_downlevel.obj
 0002:00003458       ??_C@_1M@GCEJHNEG@?$AAe?$AAn?$AA?9?$AAZ?$AAW?$AA?$AA@ 10026458     libucrt:lcidtoname_downlevel.obj
 0002:00003464       ??_C@_1M@JNOCAHJI@?$AAe?$AAs?$AA?9?$AAE?$AAC?$AA?$AA@ 10026464     libucrt:lcidtoname_downlevel.obj
 0002:00003470       ??_C@_1M@JEFHPGGB@?$AAa?$AAr?$AA?9?$AAK?$AAW?$AA?$AA@ 10026470     libucrt:lcidtoname_downlevel.obj
 0002:0000347c       ??_C@_1M@MLKIBJOJ@?$AAe?$AAn?$AA?9?$AAP?$AAH?$AA?$AA@ 1002647c     libucrt:lcidtoname_downlevel.obj
 0002:00003488       ??_C@_1M@BDNIPEND@?$AAe?$AAs?$AA?9?$AAC?$AAL?$AA?$AA@ 10026488     libucrt:lcidtoname_downlevel.obj
 0002:00003494       ??_C@_1M@MPNMEKBD@?$AAa?$AAr?$AA?9?$AAA?$AAE?$AA?$AA@ 10026494     libucrt:lcidtoname_downlevel.obj
 0002:000034a0       ??_C@_1M@KBJALCPI@?$AAe?$AAs?$AA?9?$AAU?$AAY?$AA?$AA@ 100264a0     libucrt:lcidtoname_downlevel.obj
 0002:000034ac       ??_C@_1M@LLCCOAGA@?$AAa?$AAr?$AA?9?$AAB?$AAH?$AA?$AA@ 100264ac     libucrt:lcidtoname_downlevel.obj
 0002:000034b8       ??_C@_1M@PBFNCDEL@?$AAe?$AAs?$AA?9?$AAP?$AAY?$AA?$AA@ 100264b8     libucrt:lcidtoname_downlevel.obj
 0002:000034c4       ??_C@_1M@EDGINPNP@?$AAa?$AAr?$AA?9?$AAQ?$AAA?$AA?$AA@ 100264c4     libucrt:lcidtoname_downlevel.obj
 0002:000034d0       ??_C@_1M@MKDBIIJI@?$AAe?$AAs?$AA?9?$AAB?$AAO?$AA?$AA@ 100264d0     libucrt:lcidtoname_downlevel.obj
 0002:000034dc       ??_C@_1M@CPKKEBLD@?$AAe?$AAs?$AA?9?$AAS?$AAV?$AA?$AA@ 100264dc     libucrt:lcidtoname_downlevel.obj
 0002:000034e8       ??_C@_1M@NDBGMMJL@?$AAe?$AAs?$AA?9?$AAH?$AAN?$AA?$AA@ 100264e8     libucrt:lcidtoname_downlevel.obj
 0002:000034f4       ??_C@_1M@JIJIBHDP@?$AAe?$AAs?$AA?9?$AAN?$AAI?$AA?$AA@ 100264f4     libucrt:lcidtoname_downlevel.obj
 0002:00003500       ??_C@_1M@CGFMKEEK@?$AAe?$AAs?$AA?9?$AAP?$AAR?$AA?$AA@ 10026500     libucrt:lcidtoname_downlevel.obj
 0002:0000350c       ??_C@_1O@ICJHKIIK@?$AAz?$AAh?$AA?9?$AAC?$AAH?$AAT?$AA?$AA@ 1002650c     libucrt:lcidtoname_downlevel.obj
 0002:0000351c       ??_C@_15CLNEJCE@?$AAs?$AAr?$AA?$AA@ 1002651c     libucrt:lcidtoname_downlevel.obj
 0002:00003c48       ??_C@_1M@KAHEKEIG@?$AAa?$AAf?$AA?9?$AAz?$AAa?$AA?$AA@ 10026c48     libucrt:lcidtoname_downlevel.obj
 0002:00003c54       ??_C@_1M@GIECOABL@?$AAa?$AAr?$AA?9?$AAa?$AAe?$AA?$AA@ 10026c54     libucrt:lcidtoname_downlevel.obj
 0002:00003c60       ??_C@_1M@BMLMEKGI@?$AAa?$AAr?$AA?9?$AAb?$AAh?$AA?$AA@ 10026c60     libucrt:lcidtoname_downlevel.obj
 0002:00003c6c       ??_C@_1M@DAPFDGGB@?$AAa?$AAr?$AA?9?$AAd?$AAz?$AA?$AA@ 10026c6c     libucrt:lcidtoname_downlevel.obj
 0002:00003c78       ??_C@_1M@FJNKGKIG@?$AAa?$AAr?$AA?9?$AAe?$AAg?$AA?$AA@ 10026c78     libucrt:lcidtoname_downlevel.obj
 0002:00003c84       ??_C@_1M@FLGKKCLO@?$AAa?$AAr?$AA?9?$AAi?$AAq?$AA?$AA@ 10026c84     libucrt:lcidtoname_downlevel.obj
 0002:00003c90       ??_C@_1M@GNDIPALM@?$AAa?$AAr?$AA?9?$AAj?$AAo?$AA?$AA@ 10026c90     libucrt:lcidtoname_downlevel.obj
 0002:00003c9c       ??_C@_1M@DDMJFMGJ@?$AAa?$AAr?$AA?9?$AAk?$AAw?$AA?$AA@ 10026c9c     libucrt:lcidtoname_downlevel.obj
 0002:00003ca8       ??_C@_1M@EJALMLHM@?$AAa?$AAr?$AA?9?$AAl?$AAb?$AA?$AA@ 10026ca8     libucrt:lcidtoname_downlevel.obj
 0002:00003cb4       ??_C@_1M@MOBDBLOC@?$AAa?$AAr?$AA?9?$AAl?$AAy?$AA?$AA@ 10026cb4     libucrt:lcidtoname_downlevel.obj
 0002:00003cc0       ??_C@_1M@JAOCLHDH@?$AAa?$AAr?$AA?9?$AAm?$AAa?$AA?$AA@ 10026cc0     libucrt:lcidtoname_downlevel.obj
 0002:00003ccc       ??_C@_1M@JHPMKJIE@?$AAa?$AAr?$AA?9?$AAo?$AAm?$AA?$AA@ 10026ccc     libucrt:lcidtoname_downlevel.obj
 0002:00003cd8       ??_C@_1M@OEPGHFNH@?$AAa?$AAr?$AA?9?$AAq?$AAa?$AA?$AA@ 10026cd8     libucrt:lcidtoname_downlevel.obj
 0002:00003ce4       ??_C@_1M@KJDONENM@?$AAa?$AAr?$AA?9?$AAs?$AAa?$AA?$AA@ 10026ce4     libucrt:lcidtoname_downlevel.obj
 0002:00003cf0       ??_C@_1M@DMJDKLKM@?$AAa?$AAr?$AA?9?$AAs?$AAy?$AA?$AA@ 10026cf0     libucrt:lcidtoname_downlevel.obj
 0002:00003cfc       ??_C@_1M@OMFIPEDC@?$AAa?$AAr?$AA?9?$AAt?$AAn?$AA?$AA@ 10026cfc     libucrt:lcidtoname_downlevel.obj
 0002:00003d08       ??_C@_1M@IHMHGAON@?$AAa?$AAr?$AA?9?$AAy?$AAe?$AA?$AA@ 10026d08     libucrt:lcidtoname_downlevel.obj
 0002:00003d14       ??_C@_1BG@KDCPGJGB@?$AAa?$AAz?$AA?9?$AAa?$AAz?$AA?9?$AAc?$AAy?$AAr?$AAl?$AA?$AA@ 10026d14     libucrt:lcidtoname_downlevel.obj
 0002:00003d2c       ??_C@_1BG@IBCKDDOE@?$AAa?$AAz?$AA?9?$AAa?$AAz?$AA?9?$AAl?$AAa?$AAt?$AAn?$AA?$AA@ 10026d2c     libucrt:lcidtoname_downlevel.obj
 0002:00003d44       ??_C@_1M@EGPFDCPD@?$AAb?$AAe?$AA?9?$AAb?$AAy?$AA?$AA@ 10026d44     libucrt:lcidtoname_downlevel.obj
 0002:00003d50       ??_C@_1M@PCMGMCGC@?$AAb?$AAg?$AA?9?$AAb?$AAg?$AA?$AA@ 10026d50     libucrt:lcidtoname_downlevel.obj
 0002:00003d5c       ??_C@_1M@BJBMFGOB@?$AAb?$AAn?$AA?9?$AAi?$AAn?$AA?$AA@ 10026d5c     libucrt:lcidtoname_downlevel.obj
 0002:00003d68       ??_C@_1BG@EAKMMACD@?$AAb?$AAs?$AA?9?$AAb?$AAa?$AA?9?$AAl?$AAa?$AAt?$AAn?$AA?$AA@ 10026d68     libucrt:lcidtoname_downlevel.obj
 0002:00003d80       ??_C@_1M@KGADAODK@?$AAc?$AAa?$AA?9?$AAe?$AAs?$AA?$AA@ 10026d80     libucrt:lcidtoname_downlevel.obj
 0002:00003d8c       ??_C@_1M@COAJPDHI@?$AAc?$AAs?$AA?9?$AAc?$AAz?$AA?$AA@ 10026d8c     libucrt:lcidtoname_downlevel.obj
 0002:00003d98       ??_C@_1M@DHBHFONH@?$AAc?$AAy?$AA?9?$AAg?$AAb?$AA?$AA@ 10026d98     libucrt:lcidtoname_downlevel.obj
 0002:00003da4       ??_C@_1M@IMGKELGA@?$AAd?$AAa?$AA?9?$AAd?$AAk?$AA?$AA@ 10026da4     libucrt:lcidtoname_downlevel.obj
 0002:00003db0       ??_C@_1M@NNDGDNGA@?$AAd?$AAe?$AA?9?$AAa?$AAt?$AA?$AA@ 10026db0     libucrt:lcidtoname_downlevel.obj
 0002:00003dbc       ??_C@_1M@IKDBHEEM@?$AAd?$AAe?$AA?9?$AAc?$AAh?$AA?$AA@ 10026dbc     libucrt:lcidtoname_downlevel.obj
 0002:00003dc8       ??_C@_1M@GFFOJMCJ@?$AAd?$AAe?$AA?9?$AAd?$AAe?$AA?$AA@ 10026dc8     libucrt:lcidtoname_downlevel.obj
 0002:00003dd4       ??_C@_1M@MDNLKBPM@?$AAd?$AAe?$AA?9?$AAl?$AAi?$AA?$AA@ 10026dd4     libucrt:lcidtoname_downlevel.obj
 0002:00003de0       ??_C@_1M@NJBEEJNL@?$AAd?$AAe?$AA?9?$AAl?$AAu?$AA?$AA@ 10026de0     libucrt:lcidtoname_downlevel.obj
 0002:00003dec       ??_C@_1O@GNNELBAP@?$AAd?$AAi?$AAv?$AA?9?$AAm?$AAv?$AA?$AA@ 10026dec     libucrt:lcidtoname_downlevel.obj
 0002:00003dfc       ??_C@_1M@EJLEOGAE@?$AAe?$AAl?$AA?9?$AAg?$AAr?$AA?$AA@ 10026dfc     libucrt:lcidtoname_downlevel.obj
 0002:00003e08       ??_C@_1M@GMPONJN@?$AAe?$AAn?$AA?9?$AAa?$AAu?$AA?$AA@ 10026e08     libucrt:lcidtoname_downlevel.obj
 0002:00003e14       ??_C@_1M@NIDIIPGF@?$AAe?$AAn?$AA?9?$AAb?$AAz?$AA?$AA@ 10026e14     libucrt:lcidtoname_downlevel.obj
 0002:00003e20       ??_C@_1M@JEHMIMFO@?$AAe?$AAn?$AA?9?$AAc?$AAa?$AA?$AA@ 10026e20     libucrt:lcidtoname_downlevel.obj
 0002:00003e2c       ??_C@_1M@IGMJCDLA@?$AAe?$AAn?$AA?9?$AAc?$AAb?$AA?$AA@ 10026e2c     libucrt:lcidtoname_downlevel.obj
 0002:00003e38       ??_C@_1M@BNFIGBKG@?$AAe?$AAn?$AA?9?$AAg?$AAb?$AA?$AA@ 10026e38     libucrt:lcidtoname_downlevel.obj
 0002:00003e44       ??_C@_1M@LKIFDIGP@?$AAe?$AAn?$AA?9?$AAi?$AAe?$AA?$AA@ 10026e44     libucrt:lcidtoname_downlevel.obj
 0002:00003e50       ??_C@_1M@PJKFGCCO@?$AAe?$AAn?$AA?9?$AAj?$AAm?$AA?$AA@ 10026e50     libucrt:lcidtoname_downlevel.obj
 0002:00003e5c       ??_C@_1M@KPPKEPBO@?$AAe?$AAn?$AA?9?$AAn?$AAz?$AA?$AA@ 10026e5c     libucrt:lcidtoname_downlevel.obj
 0002:00003e68       ??_C@_1M@GMDGLDOB@?$AAe?$AAn?$AA?9?$AAp?$AAh?$AA?$AA@ 10026e68     libucrt:lcidtoname_downlevel.obj
 0002:00003e74       ??_C@_1M@ONGIBJNA@?$AAe?$AAn?$AA?9?$AAt?$AAt?$AA?$AA@ 10026e74     libucrt:lcidtoname_downlevel.obj
 0002:00003e80       ??_C@_1M@LLODPCMM@?$AAe?$AAn?$AA?9?$AAu?$AAs?$AA?$AA@ 10026e80     libucrt:lcidtoname_downlevel.obj
 0002:00003e8c       ??_C@_1M@LAKFNPAN@?$AAe?$AAn?$AA?9?$AAz?$AAa?$AA?$AA@ 10026e8c     libucrt:lcidtoname_downlevel.obj
 0002:00003e98       ??_C@_1M@MFNHNHEO@?$AAe?$AAn?$AA?9?$AAz?$AAw?$AA?$AA@ 10026e98     libucrt:lcidtoname_downlevel.obj
 0002:00003ea4       ??_C@_1M@EJEINPHM@?$AAe?$AAs?$AA?9?$AAa?$AAr?$AA?$AA@ 10026ea4     libucrt:lcidtoname_downlevel.obj
 0002:00003eb0       ??_C@_1M@GNKPCCJA@?$AAe?$AAs?$AA?9?$AAb?$AAo?$AA?$AA@ 10026eb0     libucrt:lcidtoname_downlevel.obj
 0002:00003ebc       ??_C@_1M@LEEGFONL@?$AAe?$AAs?$AA?9?$AAc?$AAl?$AA?$AA@ 10026ebc     libucrt:lcidtoname_downlevel.obj
 0002:00003ec8       ??_C@_1M@KGPDPBDF@?$AAe?$AAs?$AA?9?$AAc?$AAo?$AA?$AA@ 10026ec8     libucrt:lcidtoname_downlevel.obj
 0002:00003ed4       ??_C@_1M@EIAHOHH@?$AAe?$AAs?$AA?9?$AAc?$AAr?$AA?$AA@ 10026ed4     libucrt:lcidtoname_downlevel.obj
 0002:00003ee0       ??_C@_1M@LLPGMBIN@?$AAe?$AAs?$AA?9?$AAd?$AAo?$AA?$AA@ 10026ee0     libucrt:lcidtoname_downlevel.obj
 0002:00003eec       ??_C@_1M@DKHMKNJA@?$AAe?$AAs?$AA?9?$AAe?$AAc?$AA?$AA@ 10026eec     libucrt:lcidtoname_downlevel.obj
 0002:00003ef8       ??_C@_1M@GKGFPKAP@?$AAe?$AAs?$AA?9?$AAe?$AAs?$AA?$AA@ 10026ef8     libucrt:lcidtoname_downlevel.obj
 0002:00003f04       ??_C@_1M@LKHKGDLN@?$AAe?$AAs?$AA?9?$AAg?$AAt?$AA?$AA@ 10026f04     libucrt:lcidtoname_downlevel.obj
 0002:00003f10       ??_C@_1M@HEIIGGJD@?$AAe?$AAs?$AA?9?$AAh?$AAn?$AA?$AA@ 10026f10     libucrt:lcidtoname_downlevel.obj
 0002:00003f1c       ??_C@_1M@FBDHPPGD@?$AAe?$AAs?$AA?9?$AAm?$AAx?$AA?$AA@ 10026f1c     libucrt:lcidtoname_downlevel.obj
 0002:00003f28       ??_C@_1M@DPAGLNDH@?$AAe?$AAs?$AA?9?$AAn?$AAi?$AA?$AA@ 10026f28     libucrt:lcidtoname_downlevel.obj
 0002:00003f34       ??_C@_1M@MDGOPGDD@?$AAe?$AAs?$AA?9?$AAp?$AAa?$AA?$AA@ 10026f34     libucrt:lcidtoname_downlevel.obj
 0002:00003f40       ??_C@_1M@EMAMGBGE@?$AAe?$AAs?$AA?9?$AAp?$AAe?$AA?$AA@ 10026f40     libucrt:lcidtoname_downlevel.obj
 0002:00003f4c       ??_C@_1M@IBMCAOEC@?$AAe?$AAs?$AA?9?$AAp?$AAr?$AA?$AA@ 10026f4c     libucrt:lcidtoname_downlevel.obj
 0002:00003f58       ??_C@_1M@FGMDIJED@?$AAe?$AAs?$AA?9?$AAp?$AAy?$AA?$AA@ 10026f58     libucrt:lcidtoname_downlevel.obj
 0002:00003f64       ??_C@_1M@IIDEOLLL@?$AAe?$AAs?$AA?9?$AAs?$AAv?$AA?$AA@ 10026f64     libucrt:lcidtoname_downlevel.obj
 0002:00003f70       ??_C@_1M@GAOBIPA@?$AAe?$AAs?$AA?9?$AAu?$AAy?$AA?$AA@ 10026f70     libucrt:lcidtoname_downlevel.obj
 0002:00003f7c       ??_C@_1M@JKFFICHJ@?$AAe?$AAs?$AA?9?$AAv?$AAe?$AA?$AA@ 10026f7c     libucrt:lcidtoname_downlevel.obj
 0002:00003f88       ??_C@_1M@PNMLOJDF@?$AAe?$AAt?$AA?9?$AAe?$AAe?$AA?$AA@ 10026f88     libucrt:lcidtoname_downlevel.obj
 0002:00003f94       ??_C@_1M@GHHLIKEI@?$AAe?$AAu?$AA?9?$AAe?$AAs?$AA?$AA@ 10026f94     libucrt:lcidtoname_downlevel.obj
 0002:00003fa0       ??_C@_1M@PBNONODE@?$AAf?$AAa?$AA?9?$AAi?$AAr?$AA?$AA@ 10026fa0     libucrt:lcidtoname_downlevel.obj
 0002:00003fac       ??_C@_1M@JEEHPMIL@?$AAf?$AAi?$AA?9?$AAf?$AAi?$AA?$AA@ 10026fac     libucrt:lcidtoname_downlevel.obj
 0002:00003fb8       ??_C@_1M@LMDCNDBA@?$AAf?$AAo?$AA?9?$AAf?$AAo?$AA?$AA@ 10026fb8     libucrt:lcidtoname_downlevel.obj
 0002:00003fc4       ??_C@_1M@JKEOHLDK@?$AAf?$AAr?$AA?9?$AAb?$AAe?$AA?$AA@ 10026fc4     libucrt:lcidtoname_downlevel.obj
 0002:00003fd0       ??_C@_1M@NOHADPMI@?$AAf?$AAr?$AA?9?$AAc?$AAa?$AA?$AA@ 10026fd0     libucrt:lcidtoname_downlevel.obj
 0002:00003fdc       ??_C@_1M@KDHIHAEC@?$AAf?$AAr?$AA?9?$AAc?$AAh?$AA?$AA@ 10026fdc     libucrt:lcidtoname_downlevel.obj
 0002:00003fe8       ??_C@_1M@MMBBFGAK@?$AAf?$AAr?$AA?9?$AAf?$AAr?$AA?$AA@ 10026fe8     libucrt:lcidtoname_downlevel.obj
 0002:00003ff4       ??_C@_1M@PAFNENNF@?$AAf?$AAr?$AA?9?$AAl?$AAu?$AA?$AA@ 10026ff4     libucrt:lcidtoname_downlevel.obj
 0002:00004000       ??_C@_1M@EOHDJGDD@?$AAf?$AAr?$AA?9?$AAm?$AAc?$AA?$AA@ 10027000     libucrt:lcidtoname_downlevel.obj
 0002:0000400c       ??_C@_1M@FAPLLOPF@?$AAg?$AAl?$AA?9?$AAe?$AAs?$AA?$AA@ 1002700c     libucrt:lcidtoname_downlevel.obj
 0002:00004018       ??_C@_1M@FOPBFLOO@?$AAg?$AAu?$AA?9?$AAi?$AAn?$AA?$AA@ 10027018     libucrt:lcidtoname_downlevel.obj
 0002:00004024       ??_C@_1M@KBMCINPM@?$AAh?$AAe?$AA?9?$AAi?$AAl?$AA?$AA@ 10027024     libucrt:lcidtoname_downlevel.obj
 0002:00004030       ??_C@_1M@BBPHKFPJ@?$AAh?$AAi?$AA?9?$AAi?$AAn?$AA?$AA@ 10027030     libucrt:lcidtoname_downlevel.obj
 0002:0000403c       ??_C@_1M@PMBNDPHD@?$AAh?$AAr?$AA?9?$AAb?$AAa?$AA?$AA@ 1002703c     libucrt:lcidtoname_downlevel.obj
 0002:00004048       ??_C@_1M@BPCKOEGE@?$AAh?$AAr?$AA?9?$AAh?$AAr?$AA?$AA@ 10027048     libucrt:lcidtoname_downlevel.obj
 0002:00004054       ??_C@_1M@GACBMHKE@?$AAh?$AAu?$AA?9?$AAh?$AAu?$AA?$AA@ 10027054     libucrt:lcidtoname_downlevel.obj
 0002:00004060       ??_C@_1M@MILPAJJC@?$AAh?$AAy?$AA?9?$AAa?$AAm?$AA?$AA@ 10027060     libucrt:lcidtoname_downlevel.obj
 0002:0000406c       ??_C@_1M@BABBICEC@?$AAi?$AAd?$AA?9?$AAi?$AAd?$AA?$AA@ 1002706c     libucrt:lcidtoname_downlevel.obj
 0002:00004078       ??_C@_1M@BIKNHHPF@?$AAi?$AAs?$AA?9?$AAi?$AAs?$AA?$AA@ 10027078     libucrt:lcidtoname_downlevel.obj
 0002:00004084       ??_C@_1M@NMPCJPHE@?$AAi?$AAt?$AA?9?$AAc?$AAh?$AA?$AA@ 10027084     libucrt:lcidtoname_downlevel.obj
 0002:00004090       ??_C@_1M@GHKGFEDF@?$AAi?$AAt?$AA?9?$AAi?$AAt?$AA?$AA@ 10027090     libucrt:lcidtoname_downlevel.obj
 0002:0000409c       ??_C@_1M@NIEJCJJA@?$AAj?$AAa?$AA?9?$AAj?$AAp?$AA?$AA@ 1002709c     libucrt:lcidtoname_downlevel.obj
 0002:000040a8       ??_C@_1M@JILFNBIM@?$AAk?$AAa?$AA?9?$AAg?$AAe?$AA?$AA@ 100270a8     libucrt:lcidtoname_downlevel.obj
 0002:000040b4       ??_C@_1M@PACPMGPH@?$AAk?$AAk?$AA?9?$AAk?$AAz?$AA?$AA@ 100270b4     libucrt:lcidtoname_downlevel.obj
 0002:000040c0       ??_C@_1M@IELFGMHA@?$AAk?$AAn?$AA?9?$AAi?$AAn?$AA?$AA@ 100270c0     libucrt:lcidtoname_downlevel.obj
 0002:000040cc       ??_C@_1O@IBBJHCH@?$AAk?$AAo?$AAk?$AA?9?$AAi?$AAn?$AA?$AA@ 100270cc     libucrt:lcidtoname_downlevel.obj
 0002:000040dc       ??_C@_1M@DMHAEOGC@?$AAk?$AAo?$AA?9?$AAk?$AAr?$AA?$AA@ 100270dc     libucrt:lcidtoname_downlevel.obj
 0002:000040e8       ??_C@_1M@HBAHBIGA@?$AAk?$AAy?$AA?9?$AAk?$AAg?$AA?$AA@ 100270e8     libucrt:lcidtoname_downlevel.obj
 0002:000040f4       ??_C@_1M@KPMILCJG@?$AAl?$AAt?$AA?9?$AAl?$AAt?$AA?$AA@ 100270f4     libucrt:lcidtoname_downlevel.obj
 0002:00004100       ??_C@_1M@BDEKKCA@?$AAl?$AAv?$AA?9?$AAl?$AAv?$AA?$AA@ 10027100     libucrt:lcidtoname_downlevel.obj
 0002:0000410c       ??_C@_1M@ELCKCCJJ@?$AAm?$AAi?$AA?9?$AAn?$AAz?$AA?$AA@ 1002710c     libucrt:lcidtoname_downlevel.obj
 0002:00004118       ??_C@_1M@CBOOLAPA@?$AAm?$AAk?$AA?9?$AAm?$AAk?$AA?$AA@ 10027118     libucrt:lcidtoname_downlevel.obj
 0002:00004124       ??_C@_1M@GPHNBJKN@?$AAm?$AAl?$AA?9?$AAi?$AAn?$AA?$AA@ 10027124     libucrt:lcidtoname_downlevel.obj
 0002:00004130       ??_C@_1M@PABJILIG@?$AAm?$AAn?$AA?9?$AAm?$AAn?$AA?$AA@ 10027130     libucrt:lcidtoname_downlevel.obj
 0002:0000413c       ??_C@_1M@FGBKKIPG@?$AAm?$AAr?$AA?9?$AAi?$AAn?$AA?$AA@ 1002713c     libucrt:lcidtoname_downlevel.obj
 0002:00004148       ??_C@_1M@NDBPDDAL@?$AAm?$AAs?$AA?9?$AAb?$AAn?$AA?$AA@ 10027148     libucrt:lcidtoname_downlevel.obj
 0002:00004154       ??_C@_1M@OPIHOOPI@?$AAm?$AAs?$AA?9?$AAm?$AAy?$AA?$AA@ 10027154     libucrt:lcidtoname_downlevel.obj
 0002:00004160       ??_C@_1M@PPDBCNFM@?$AAm?$AAt?$AA?9?$AAm?$AAt?$AA?$AA@ 10027160     libucrt:lcidtoname_downlevel.obj
 0002:0000416c       ??_C@_1M@KDJDKMDD@?$AAn?$AAb?$AA?9?$AAn?$AAo?$AA?$AA@ 1002716c     libucrt:lcidtoname_downlevel.obj
 0002:00004178       ??_C@_1M@KFCFLMJP@?$AAn?$AAl?$AA?9?$AAb?$AAe?$AA?$AA@ 10027178     libucrt:lcidtoname_downlevel.obj
 0002:00004184       ??_C@_1M@KPOPDDGO@?$AAn?$AAl?$AA?9?$AAn?$AAl?$AA?$AA@ 10027184     libucrt:lcidtoname_downlevel.obj
 0002:00004190       ??_C@_1M@LJKPEMLN@?$AAn?$AAn?$AA?9?$AAn?$AAo?$AA?$AA@ 10027190     libucrt:lcidtoname_downlevel.obj
 0002:0000419c       ??_C@_1M@BDGHHBFL@?$AAn?$AAs?$AA?9?$AAz?$AAa?$AA?$AA@ 1002719c     libucrt:lcidtoname_downlevel.obj
 0002:000041a8       ??_C@_1M@IDEHOAP@?$AAp?$AAa?$AA?9?$AAi?$AAn?$AA?$AA@ 100271a8     libucrt:lcidtoname_downlevel.obj
 0002:000041b4       ??_C@_1M@HDBKGOGH@?$AAp?$AAl?$AA?9?$AAp?$AAl?$AA?$AA@ 100271b4     libucrt:lcidtoname_downlevel.obj
 0002:000041c0       ??_C@_1M@LJLLCMEH@?$AAp?$AAt?$AA?9?$AAb?$AAr?$AA?$AA@ 100271c0     libucrt:lcidtoname_downlevel.obj
 0002:000041cc       ??_C@_1M@NCMONAAL@?$AAp?$AAt?$AA?9?$AAp?$AAt?$AA?$AA@ 100271cc     libucrt:lcidtoname_downlevel.obj
 0002:000041d8       ??_C@_1O@EAKMAJDN@?$AAq?$AAu?$AAz?$AA?9?$AAb?$AAo?$AA?$AA@ 100271d8     libucrt:lcidtoname_downlevel.obj
 0002:000041e8       ??_C@_1O@BHHPIGDN@?$AAq?$AAu?$AAz?$AA?9?$AAe?$AAc?$AA?$AA@ 100271e8     libucrt:lcidtoname_downlevel.obj
 0002:000041f8       ??_C@_1O@GBAPEKMJ@?$AAq?$AAu?$AAz?$AA?9?$AAp?$AAe?$AA?$AA@ 100271f8     libucrt:lcidtoname_downlevel.obj
 0002:00004208       ??_C@_1M@CLGLEFBO@?$AAr?$AAo?$AA?9?$AAr?$AAo?$AA?$AA@ 10027208     libucrt:lcidtoname_downlevel.obj
 0002:00004214       ??_C@_1M@CEEDODME@?$AAr?$AAu?$AA?9?$AAr?$AAu?$AA?$AA@ 10027214     libucrt:lcidtoname_downlevel.obj
 0002:00004220       ??_C@_1M@HPKKKMPP@?$AAs?$AAa?$AA?9?$AAi?$AAn?$AA?$AA@ 10027220     libucrt:lcidtoname_downlevel.obj
 0002:0000422c       ??_C@_1M@BKMAIGOJ@?$AAs?$AAe?$AA?9?$AAf?$AAi?$AA?$AA@ 1002722c     libucrt:lcidtoname_downlevel.obj
 0002:00004238       ??_C@_1M@NDPIFLFI@?$AAs?$AAe?$AA?9?$AAn?$AAo?$AA?$AA@ 10027238     libucrt:lcidtoname_downlevel.obj
 0002:00004244       ??_C@_1M@DANKKHJ@?$AAs?$AAe?$AA?9?$AAs?$AAe?$AA?$AA@ 10027244     libucrt:lcidtoname_downlevel.obj
 0002:00004250       ??_C@_1M@PNBLONPJ@?$AAs?$AAk?$AA?9?$AAs?$AAk?$AA?$AA@ 10027250     libucrt:lcidtoname_downlevel.obj
 0002:0000425c       ??_C@_1M@LFMODOAL@?$AAs?$AAl?$AA?9?$AAs?$AAi?$AA?$AA@ 1002725c     libucrt:lcidtoname_downlevel.obj
 0002:00004268       ??_C@_1O@DFKOMPG@?$AAs?$AAm?$AAa?$AA?9?$AAn?$AAo?$AA?$AA@ 10027268     libucrt:lcidtoname_downlevel.obj
 0002:00004278       ??_C@_1O@NDKPBNNH@?$AAs?$AAm?$AAa?$AA?9?$AAs?$AAe?$AA?$AA@ 10027278     libucrt:lcidtoname_downlevel.obj
 0002:00004288       ??_C@_1O@PLLKBHAB@?$AAs?$AAm?$AAj?$AA?9?$AAn?$AAo?$AA?$AA@ 10027288     libucrt:lcidtoname_downlevel.obj
 0002:00004298       ??_C@_1O@CLEPOGCA@?$AAs?$AAm?$AAj?$AA?9?$AAs?$AAe?$AA?$AA@ 10027298     libucrt:lcidtoname_downlevel.obj
 0002:000042a8       ??_C@_1O@DLGJGKMK@?$AAs?$AAm?$AAn?$AA?9?$AAf?$AAi?$AA?$AA@ 100272a8     libucrt:lcidtoname_downlevel.obj
 0002:000042b8       ??_C@_1O@OJDJGAJC@?$AAs?$AAm?$AAs?$AA?9?$AAf?$AAi?$AA?$AA@ 100272b8     libucrt:lcidtoname_downlevel.obj
 0002:000042c8       ??_C@_1M@BOFOGHPB@?$AAs?$AAq?$AA?9?$AAa?$AAl?$AA?$AA@ 100272c8     libucrt:lcidtoname_downlevel.obj
 0002:000042d4       ??_C@_1BG@LJBBIPGB@?$AAs?$AAr?$AA?9?$AAb?$AAa?$AA?9?$AAc?$AAy?$AAr?$AAl?$AA?$AA@ 100272d4     libucrt:lcidtoname_downlevel.obj
 0002:000042ec       ??_C@_1BG@JLBENFOE@?$AAs?$AAr?$AA?9?$AAb?$AAa?$AA?9?$AAl?$AAa?$AAt?$AAn?$AA?$AA@ 100272ec     libucrt:lcidtoname_downlevel.obj
 0002:00004304       ??_C@_1BG@KODPNHE@?$AAs?$AAr?$AA?9?$AAs?$AAp?$AA?9?$AAc?$AAy?$AAr?$AAl?$AA?$AA@ 10027304     libucrt:lcidtoname_downlevel.obj
 0002:0000431c       ??_C@_1BG@CIOGKHPB@?$AAs?$AAr?$AA?9?$AAs?$AAp?$AA?9?$AAl?$AAa?$AAt?$AAn?$AA?$AA@ 1002731c     libucrt:lcidtoname_downlevel.obj
 0002:00004334       ??_C@_1M@NGFJLMAC@?$AAs?$AAv?$AA?9?$AAf?$AAi?$AA?$AA@ 10027334     libucrt:lcidtoname_downlevel.obj
 0002:00004340       ??_C@_1M@MPJEJAJC@?$AAs?$AAv?$AA?9?$AAs?$AAe?$AA?$AA@ 10027340     libucrt:lcidtoname_downlevel.obj
 0002:0000434c       ??_C@_1M@MPNDHLFK@?$AAs?$AAw?$AA?9?$AAk?$AAe?$AA?$AA@ 1002734c     libucrt:lcidtoname_downlevel.obj
 0002:00004358       ??_C@_1O@KOHBJJI@?$AAs?$AAy?$AAr?$AA?9?$AAs?$AAy?$AA?$AA@ 10027358     libucrt:lcidtoname_downlevel.obj
 0002:00004368       ??_C@_1M@LDCEFHA@?$AAt?$AAa?$AA?9?$AAi?$AAn?$AA?$AA@ 10027368     libucrt:lcidtoname_downlevel.obj
 0002:00004374       ??_C@_1M@CNJOFAK@?$AAt?$AAe?$AA?9?$AAi?$AAn?$AA?$AA@ 10027374     libucrt:lcidtoname_downlevel.obj
 0002:00004380       ??_C@_1M@GNAECACD@?$AAt?$AAh?$AA?9?$AAt?$AAh?$AA?$AA@ 10027380     libucrt:lcidtoname_downlevel.obj
 0002:0000438c       ??_C@_1M@CHBIHOJO@?$AAt?$AAn?$AA?9?$AAz?$AAa?$AA?$AA@ 1002738c     libucrt:lcidtoname_downlevel.obj
 0002:00004398       ??_C@_1M@GCCMIGPJ@?$AAt?$AAr?$AA?9?$AAt?$AAr?$AA?$AA@ 10027398     libucrt:lcidtoname_downlevel.obj
 0002:000043a4       ??_C@_1M@CELMCNBK@?$AAt?$AAt?$AA?9?$AAr?$AAu?$AA?$AA@ 100273a4     libucrt:lcidtoname_downlevel.obj
 0002:000043b0       ??_C@_1M@KLMCELGA@?$AAu?$AAk?$AA?9?$AAu?$AAa?$AA?$AA@ 100273b0     libucrt:lcidtoname_downlevel.obj
 0002:000043bc       ??_C@_1M@EPAJJAJF@?$AAu?$AAr?$AA?9?$AAp?$AAk?$AA?$AA@ 100273bc     libucrt:lcidtoname_downlevel.obj
 0002:000043c8       ??_C@_1BG@GEGPMCDJ@?$AAu?$AAz?$AA?9?$AAu?$AAz?$AA?9?$AAc?$AAy?$AAr?$AAl?$AA?$AA@ 100273c8     libucrt:lcidtoname_downlevel.obj
 0002:000043e0       ??_C@_1BG@EGGKJILM@?$AAu?$AAz?$AA?9?$AAu?$AAz?$AA?9?$AAl?$AAa?$AAt?$AAn?$AA?$AA@ 100273e0     libucrt:lcidtoname_downlevel.obj
 0002:000043f8       ??_C@_1M@GFOCLFF@?$AAv?$AAi?$AA?9?$AAv?$AAn?$AA?$AA@ 100273f8     libucrt:lcidtoname_downlevel.obj
 0002:00004404       ??_C@_1M@CPAMEDFI@?$AAx?$AAh?$AA?9?$AAz?$AAa?$AA?$AA@ 10027404     libucrt:lcidtoname_downlevel.obj
 0002:00004410       ??_C@_1O@EBKIFIGN@?$AAz?$AAh?$AA?9?$AAc?$AAh?$AAs?$AA?$AA@ 10027410     libucrt:lcidtoname_downlevel.obj
 0002:00004420       ??_C@_1O@NMHPGANE@?$AAz?$AAh?$AA?9?$AAc?$AAh?$AAt?$AA?$AA@ 10027420     libucrt:lcidtoname_downlevel.obj
 0002:00004430       ??_C@_1M@LPINJOMC@?$AAz?$AAh?$AA?9?$AAc?$AAn?$AA?$AA@ 10027430     libucrt:lcidtoname_downlevel.obj
 0002:0000443c       ??_C@_1M@OCJEJODD@?$AAz?$AAh?$AA?9?$AAh?$AAk?$AA?$AA@ 1002743c     libucrt:lcidtoname_downlevel.obj
 0002:00004448       ??_C@_1M@DNDLJINH@?$AAz?$AAh?$AA?9?$AAm?$AAo?$AA?$AA@ 10027448     libucrt:lcidtoname_downlevel.obj
 0002:00004454       ??_C@_1M@MBFDNDND@?$AAz?$AAh?$AA?9?$AAs?$AAg?$AA?$AA@ 10027454     libucrt:lcidtoname_downlevel.obj
 0002:00004460       ??_C@_1M@IMEPLEPE@?$AAz?$AAh?$AA?9?$AAt?$AAw?$AA?$AA@ 10027460     libucrt:lcidtoname_downlevel.obj
 0002:0000446c       ??_C@_1M@BBGHNHJP@?$AAz?$AAu?$AA?9?$AAz?$AAa?$AA?$AA@ 1002746c     libucrt:lcidtoname_downlevel.obj
 0002:00004478       ?large_power_data@?1??multiply_by_power_of_ten@__crt_strtox@@YA_NAAUbig_integer@2@I@Z@4QBIB 10027478     libucrt:cfout.obj
 0002:00004d80       ?large_power_indices@?1??multiply_by_power_of_ten@__crt_strtox@@YA_NAAUbig_integer@2@I@Z@4QBUunpack_index@?1??12@YA_N0I@Z@B 10027d80     libucrt:cfout.obj
 0002:00004e18       ?small_powers_of_ten@?6??multiply_by_power_of_ten@__crt_strtox@@YA_NAAUbig_integer@2@I@Z@4QBIB 10027e18     libucrt:cfout.obj
 0002:00004e3c       ??_C@_01GBGANLPD@0?$AA@    10027e3c     libucrt:cfout.obj
 0002:00004e40       ??_C@_05DNEBIAHO@1?$CDINF?$AA@ 10027e40     libucrt:cfout.obj
 0002:00004e48       ??_C@_06IMKFLFPG@1?$CDQNAN?$AA@ 10027e48     libucrt:cfout.obj
 0002:00004e50       ??_C@_06PGGFOGJG@1?$CDSNAN?$AA@ 10027e50     libucrt:cfout.obj
 0002:00004e58       ??_C@_05PHHOCPM@1?$CDIND?$AA@ 10027e58     libucrt:cfout.obj
 0002:00004eb8       ??_C@_1BA@BALFACEM@?$AAC?$AAO?$AAN?$AAO?$AAU?$AAT?$AA$?$AA?$AA@ 10027eb8     libucrt:initcon.obj
 0002:00004fd0       __infinity                 10027fd0     libucrt:87tran.obj
 0002:00004fda       __minfinity                10027fda     libucrt:87tran.obj
 0002:00004fe4       __logemax                  10027fe4     libucrt:87tran.obj
 0002:0000500a       __OP_EXPjmptab             1002800a     libucrt:87tran.obj
 0002:00005030       __indefinite               10028030     libucrt:87disp.obj
 0002:0000503a       __piby2                    1002803a     libucrt:87disp.obj
 0002:00005044       __piby4                    10028044     libucrt:87disp.obj
 0002:00005078       __DEFAULT_CW_in_mem        10028078     libucrt:common.obj
 0002:0000507a       __pi_by_2_to_61            1002807a     libucrt:common.obj
 0002:000050b4       ??_C@_03MGHMBJCF@log?$AA@  100280b4     libucrt:libm_error.obj
 0002:000050b8       ??_C@_05HGHHAHAP@log10?$AA@ 100280b8     libucrt:libm_error.obj
 0002:000050c0       ??_C@_03KHJOGHMM@exp?$AA@  100280c0     libucrt:libm_error.obj
 0002:000050c4       ??_C@_03JGHBODFD@pow?$AA@  100280c4     libucrt:libm_error.obj
 0002:000050c8       ??_C@_04FIHNOPOL@asin?$AA@ 100280c8     libucrt:libm_error.obj
 0002:000050d0       ??_C@_04PDIFKINK@acos?$AA@ 100280d0     libucrt:libm_error.obj
 0002:000050d8       ??_C@_04EIAKFFMI@sqrt?$AA@ 100280d8     libucrt:libm_error.obj
 0002:00005100       ___acrt_log10_table_t      10028100     libucrt:log10_tables.obj
 0002:00005510       ___acrt_log10_table_cb     10028510     libucrt:log10_tables.obj
 0002:00005920       __real@3fe0000000000000    10028920     libucrt:powhlp.obj
 0002:00005928       ??_C@_04FJHINJAO@tanh?$AA@ 10028928     libucrt:fpexcept.obj
 0002:00005930       ??_C@_04MLLJIGOK@atan?$AA@ 10028930     libucrt:fpexcept.obj
 0002:00005938       ??_C@_05KNGEOGJB@atan2?$AA@ 10028938     libucrt:fpexcept.obj
 0002:00005940       ??_C@_03BLEJJJBH@sin?$AA@  10028940     libucrt:fpexcept.obj
 0002:00005944       ??_C@_03LALBNOCG@cos?$AA@  10028944     libucrt:fpexcept.obj
 0002:00005948       ??_C@_03IIINPABG@tan?$AA@  10028948     libucrt:fpexcept.obj
 0002:0000594c       ??_C@_04GFPJNGEK@ceil?$AA@ 1002894c     libucrt:fpexcept.obj
 0002:00005954       ??_C@_05PBJFFIGL@floor?$AA@ 10028954     libucrt:fpexcept.obj
 0002:0000595c       ??_C@_04ODHECPBC@fabs?$AA@ 1002895c     libucrt:fpexcept.obj
 0002:00005964       ??_C@_04EHEDPDJG@modf?$AA@ 10028964     libucrt:fpexcept.obj
 0002:0000596c       ??_C@_05CEJMAHNP@ldexp?$AA@ 1002896c     libucrt:fpexcept.obj
 0002:00005974       ??_C@_05KBKMEMPO@_cabs?$AA@ 10028974     libucrt:fpexcept.obj
 0002:0000597c       ??_C@_06MEIMCGCF@_hypot?$AA@ 1002897c     libucrt:fpexcept.obj
 0002:00005984       ??_C@_04KEPJIHGP@fmod?$AA@ 10028984     libucrt:fpexcept.obj
 0002:0000598c       ??_C@_05GKKHEGJL@frexp?$AA@ 1002898c     libucrt:fpexcept.obj
 0002:00005994       ??_C@_03MJLDFKDL@_y0?$AA@  10028994     libucrt:fpexcept.obj
 0002:00005998       ??_C@_03NAKIGLHK@_y1?$AA@  10028998     libucrt:fpexcept.obj
 0002:0000599c       ??_C@_03ONILCKOB@_yn?$AA@  1002899c     libucrt:fpexcept.obj
 0002:000059a0       ??_C@_05JGDBENOH@_logb?$AA@ 100289a0     libucrt:fpexcept.obj
 0002:000059a8       ??_C@_0L@KDOEJCKC@_nextafter?$AA@ 100289a8     libucrt:fpexcept.obj
 0002:00005aa0       ??_C@_04COOMCNPB@sinh?$AA@ 10028aa0     libucrt:fpexcept.obj
 0002:00005aa8       ??_C@_04HPJJNFIM@cosh?$AA@ 10028aa8     libucrt:fpexcept.obj
 0002:00005ab0       __d_inf                    10028ab0     libucrt:util.obj
 0002:00005ab8       __d_max                    10028ab8     libucrt:util.obj
 0002:00005ac0       __d_mzero                  10028ac0     libucrt:util.obj
 0002:00005ac8       ??_C@_1BK@DBDEIDLH@?$AAK?$AAE?$AAR?$AAN?$AAE?$AAL?$AA3?$AA2?$AA?4?$AAD?$AAL?$AAL?$AA?$AA@ 10028ac8     DelayImp:delayhlp.obj
 0002:00005ae4       ??_C@_0BI@OMNLIJDB@AcquireSRWLockExclusive?$AA@ 10028ae4     DelayImp:delayhlp.obj
 0002:00005afc       ??_C@_0BI@HMIEPCNJ@ReleaseSRWLockExclusive?$AA@ 10028afc     DelayImp:delayhlp.obj
 0002:00005b18       __load_config_used         10028b18     LIBCMT:loadcfg.obj
 0002:00005b74       ??_C@_0CK@JCPCLECK@external?5memory?5allocation?5limit@ 10028b74     odbc.obj
 0002:00005ba0       ??_C@_1DG@OKCGPKIB@?$AAp?$AAe?$AAr?$AAs?$AAi?$AAs?$AAt?$AAe?$AAn?$AAt?$AA?$CI?$AA?$CJ?$AA?4?$AAI?$AAs?$AAN?$AAe?$AAa?$AAr?$AAD?$AAe?$AAa?$AAt?$AAh?$AA?$CI?$AA?$CJ?$AA?$AA@ 10028ba0     odbc.obj
 0002:00005bd8       ??_C@_1CO@EGNPJLKI@?$AAp?$AAe?$AAr?$AAs?$AAi?$AAs?$AAt?$AAe?$AAn?$AAt?$AA?$CI?$AA?$CJ?$AA?4?$AAI?$AAs?$AAE?$AAm?$AAp?$AAt?$AAy?$AA?$CI?$AA?$CJ?$AA?$AA@ 10028bd8     odbc.obj
 0002:00005c08       ??_C@_1DA@FBGAEOIO@?$AA?$CB?$AAp?$AAe?$AAr?$AAs?$AAi?$AAs?$AAt?$AAe?$AAn?$AAt?$AA?$CI?$AA?$CJ?$AA?4?$AAI?$AAs?$AAE?$AAm?$AAp?$AAt?$AAy?$AA?$CI?$AA?$CJ?$AA?$AA@ 10028c08     odbc.obj
 0002:00005c38       ??_C@_1CO@JCKLEFMA@?$AA?$CB?$AAp?$AAe?$AAr?$AAs?$AAi?$AAs?$AAt?$AAe?$AAn?$AAt?$AA?$CI?$AA?$CJ?$AA?4?$AAI?$AAs?$AAW?$AAe?$AAa?$AAk?$AA?$CI?$AA?$CJ?$AA?$AA@ 10028c38     odbc.obj
 0002:00005c68       ??_C@_1BE@GMLLOIPJ@?$AAr?$AAe?$AAf?$AAs?$AA_?$AA?5?$AA?$DO?$AA?5?$AA0?$AA?$AA@ 10028c68     odbc.obj
 0002:00005c7c       ??_C@_1CC@GBFLAAPF@?$AAw?$AAr?$AAa?$AAp?$AA?9?$AA?$DO?$AAr?$AAe?$AAf?$AAs?$AA_?$AA?5?$AA?$DN?$AA?$DN?$AA?5?$AA0?$AA?$AA@ 10028c7c     odbc.obj
 0002:00005ca0       ??_C@_1DI@ELDBKNAK@?$AAw?$AAr?$AAa?$AAp?$AA?9?$AA?$DO?$AAh?$AAa?$AAn?$AAd?$AAl?$AAe?$AA_?$AA?4?$AAI?$AAs?$AAN?$AAe?$AAa?$AAr?$AAD?$AAe?$AAa?$AAt?$AAh?$AA?$CI?$AA?$CJ?$AA?$AA@ 10028ca0     odbc.obj
 0002:00005cd8       ??_C@_1HC@IPHFBNND@?$AAd?$AA?3?$AA?2?$AAc?$AAo?$AAd?$AAe?$AA?2?$AAn?$AAo?$AAd?$AAe?$AAj?$AAs?$AA?2?$AAo?$AAd?$AAb?$AAc?$AA3?$AA2?$AA?2?$AAn?$AAo?$AAd?$AAe?$AA_?$AAm?$AAo?$AAd?$AAu?$AAl@ 10028cd8     odbc.obj
 0002:00005d50       ??_C@_1EC@MGGLMBLC@?$AAo?$AAb?$AAj?$AAe?$AAc?$AAt?$AA?9?$AA?$DO?$AAI?$AAn?$AAt?$AAe?$AAr?$AAn?$AAa?$AAl?$AAF?$AAi?$AAe?$AAl?$AAd?$AAC?$AAo?$AAu?$AAn?$AAt?$AA?$CI?$AA?$CJ?$AA?5?$AA?$DO?$AA?5?$AA0@ 10028d50     odbc.obj
 0002:00005d94       ??_C@_06OOPIFAJ@Sunday?$AA@ 10028d94     odbc.obj
 0002:00005d9c       ??_C@_06JLEDEDGH@Monday?$AA@ 10028d9c     odbc.obj
 0002:00005da4       ??_C@_07BAAGCFCM@Tuesday?$AA@ 10028da4     odbc.obj
 0002:00005dac       ??_C@_09DLIGFAKA@Wednesday?$AA@ 10028dac     odbc.obj
 0002:00005db8       ??_C@_08HACCIKIA@Thursday?$AA@ 10028db8     odbc.obj
 0002:00005dc4       ??_C@_06JECMNKMI@Friday?$AA@ 10028dc4     odbc.obj
 0002:00005dcc       ??_C@_08INBOOONO@Saturday?$AA@ 10028dcc     odbc.obj
 0002:00005dd8       ??_C@_03KOEHGMDN@Sun?$AA@  10028dd8     odbc.obj
 0002:00005ddc       ??_C@_03PDAGKDH@Mon?$AA@   10028ddc     odbc.obj
 0002:00005de0       ??_C@_03NAGEINEP@Tue?$AA@  10028de0     odbc.obj
 0002:00005de4       ??_C@_03MHOMLAJA@Wed?$AA@  10028de4     odbc.obj
 0002:00005de8       ??_C@_03IOFIKPDN@Thu?$AA@  10028de8     odbc.obj
 0002:00005dec       ??_C@_03IDIOELNC@Fri?$AA@  10028dec     odbc.obj
 0002:00005df0       ??_C@_03FEFJNEK@Sat?$AA@   10028df0     odbc.obj
 0002:00005df4       ??_C@_07CGJPFGJA@January?$AA@ 10028df4     odbc.obj
 0002:00005dfc       ??_C@_08GNJGEPFN@February?$AA@ 10028dfc     odbc.obj
 0002:00005e08       ??_C@_05HPCKOFNC@March?$AA@ 10028e08     odbc.obj
 0002:00005e10       ??_C@_05DMJDNLEJ@April?$AA@ 10028e10     odbc.obj
 0002:00005e18       ??_C@_03CNMDKL@May?$AA@    10028e18     odbc.obj
 0002:00005e1c       ??_C@_04CNLMGBGM@June?$AA@ 10028e1c     odbc.obj
 0002:00005e24       ??_C@_04MIEPOIFP@July?$AA@ 10028e24     odbc.obj
 0002:00005e2c       ??_C@_06LBBHFDDG@August?$AA@ 10028e2c     odbc.obj
 0002:00005e34       ??_C@_09BHHEALKD@September?$AA@ 10028e34     odbc.obj
 0002:00005e40       ??_C@_07JJNFCEND@October?$AA@ 10028e40     odbc.obj
 0002:00005e48       ??_C@_08HCHEGEOA@November?$AA@ 10028e48     odbc.obj
 0002:00005e54       ??_C@_08EDHMEBNP@December?$AA@ 10028e54     odbc.obj
 0002:00005e60       ??_C@_03JIHJHPIE@Jan?$AA@  10028e60     odbc.obj
 0002:00005e64       ??_C@_03HJBDCHOM@Feb?$AA@  10028e64     odbc.obj
 0002:00005e68       ??_C@_03ODNJBKGA@Mar?$AA@  10028e68     odbc.obj
 0002:00005e6c       ??_C@_03LEOLGMJP@Apr?$AA@  10028e6c     odbc.obj
 0002:00005e70       ??_C@_03IDFGHECI@Jun?$AA@  10028e70     odbc.obj
 0002:00005e74       ??_C@_03LBGABGKK@Jul?$AA@  10028e74     odbc.obj
 0002:00005e78       ??_C@_03IFJFEIGA@Aug?$AA@  10028e78     odbc.obj
 0002:00005e7c       ??_C@_03GGCAPAJC@Sep?$AA@  10028e7c     odbc.obj
 0002:00005e80       ??_C@_03BMAOKBAD@Oct?$AA@  10028e80     odbc.obj
 0002:00005e84       ??_C@_03JPJOFNIA@Nov?$AA@  10028e84     odbc.obj
 0002:00005e88       ??_C@_03MKABNOCG@Dec?$AA@  10028e88     odbc.obj
 0002:00005e8c       ??_C@_02DEDBPAFC@AM?$AA@   10028e8c     odbc.obj
 0002:00005e90       ??_C@_02CJNFDJBF@PM?$AA@   10028e90     odbc.obj
 0002:00005e94       ??_C@_04FPECENHI@ODBC?$AA@ 10028e94     odbc.obj
 0002:00005e9c       ??_C@_09LEJMBPED@SQL_CLOSE?$AA@ 10028e9c     odbc.obj
 0002:00005ea8       ??_C@_08LINMGOJM@SQL_DROP?$AA@ 10028ea8     odbc.obj
 0002:00005eb4       ??_C@_0L@PJNDJCGA@SQL_UNBIND?$AA@ 10028eb4     odbc.obj
 0002:00005ec0       ??_C@_0BB@CDCCBKMK@SQL_RESET_PARAMS?$AA@ 10028ec0     odbc.obj
 0002:00005ed4       ??_C@_0M@NCEELEFD@SQL_DESTROY?$AA@ 10028ed4     odbc.obj
 0002:00005ee0       ??_C@_0M@HJJMEEHK@FETCH_ARRAY?$AA@ 10028ee0     odbc.obj
 0002:00005eec       ??_C@_0N@PDNEIIEC@FETCH_OBJECT?$AA@ 10028eec     odbc.obj
 0002:00005efc       ??_C@_0BB@HPJPOOCH@createConnection?$AA@ 10028efc     odbc.obj
 0002:00005f10       ??_C@_0BF@MNOHBEBG@createConnectionSync?$AA@ 10028f10     odbc.obj
 0002:00005f30       ??_C@_0BC@LGPAMIPH@?$CFY?9?$CFm?9?$CFd?5?$CFH?3?$CFM?3?$CFS?$AA@ 10028f30     odbc.obj
 0002:00005f44       ??_C@_1CA@OKAPGPID@?$AA?4?$AA?4?$AA?2?$AAs?$AAr?$AAc?$AA?2?$AAo?$AAd?$AAb?$AAc?$AA?4?$AAc?$AAp?$AAp?$AA?$AA@ 10028f44     odbc.obj
 0002:00005f64       ??_C@_1DE@KAAHJLHA@?$AAr?$AAe?$AAt?$AA?5?$AA?$CB?$AA?$DN?$AA?5?$AAS?$AAQ?$AAL?$AA_?$AAI?$AAN?$AAV?$AAA?$AAL?$AAI?$AAD?$AA_?$AAH?$AAA?$AAN?$AAD?$AAL?$AAE?$AA?$AA@ 10028f64     odbc.obj
 0002:00005f98       ??_C@_0CK@JANBMMH@?$FLnode?9odbc?$FN?5Error?5in?5ODBC?3?3GetCo@ 10028f98     odbc.obj
 0002:00005fc4       ??_C@_0BG@HMGGBHBF@?$FLnode?9odbc?$FN?5SQL_ERROR?$AA@ 10028fc4     odbc.obj
 0002:00005fdc       ??_C@_06EOMHCNPI@errors?$AA@ 10028fdc     odbc.obj
 0002:00005fe4       ??_C@_05KKCIMGE@error?$AA@ 10028fe4     odbc.obj
 0002:00005fec       ??_C@_07ONPBMBOP@message?$AA@ 10028fec     odbc.obj
 0002:00005ff4       ??_C@_05HDBKIDE@state?$AA@ 10028ff4     odbc.obj
 0002:00006000       ??_C@_0EL@MKNIHBBN@?$FLnode?9odbc?$FN?5An?5error?5occurred?5bu@ 10029000     odbc.obj
 0002:0000604c       ??_C@_0BA@IAHOMENL@?4?4?2src?2odbc?4cpp?$AA@ 1002904c     odbc.obj
 0002:0000605c       ??_C@_0O@IMILNIJO@odbc_bindings?$AA@ 1002905c     odbc.obj
 0002:0000606c       ??_C@_1CE@LNAGEONJ@?$AA?$CB?$AAo?$AAb?$AAj?$AAe?$AAc?$AAt?$AA?4?$AAI?$AAs?$AAE?$AAm?$AAp?$AAt?$AAy?$AA?$CI?$AA?$CJ?$AA?$AA@ 1002906c     odbc.obj
 0002:00006090       ??_7ExternalStringResourceBase@String@v8@@6B@ 10029090     odbc.obj
 0002:00006098       ??_7ExternalOneByteStringResourceImpl@v8@@6B@ 10029098     odbc.obj
 0002:000060a8       ??_7ExternalOneByteStringResource@String@v8@@6B@ 100290a8     odbc.obj
 0002:000060a8       ??_7ExternalStringResource@String@v8@@6B@ 100290a8     odbc.obj
 0002:000060b8       ??_7ExternalSourceStream@ScriptCompiler@v8@@6B@ 100290b8     odbc.obj
 0002:000060c8       ??_7Allocator@ArrayBuffer@v8@@6B@ 100290c8     odbc.obj
 0002:000060d8       ??_7ObjectWrap@Nan@@6B@    100290d8     odbc.obj
 0002:000060e4       ??_7ODBC@@6B@              100290e4     odbc.obj
 0002:000060f0       ??_7Extension@v8@@6B@      100290f0     odbc.obj
 0002:000060f8       ??_7PersistentHandleVisitor@v8@@6B@ 100290f8     odbc.obj
 0002:00006100       ??_7ExternalResourceVisitor@v8@@6B@ 10029100     odbc.obj
 0002:00006108       ??_C@_00CNPNBAHC@?$AA@     10029108     odbc_connection.obj
 0002:0000610c       ??_C@_03DLEKAJFN@sql?$AA@  1002910c     odbc_connection.obj
 0002:00006110       ??_C@_06JMGHNNK@params?$AA@ 10029110     odbc_connection.obj
 0002:00006118       ??_C@_09EJCMIBE@noResults?$AA@ 10029118     odbc_connection.obj
 0002:00006124       ??_C@_0P@OPIHJPFK@ODBCConnection?$AA@ 10029124     odbc_connection.obj
 0002:00006134       ??_C@_09JGOMOAGJ@connected?$AA@ 10029134     odbc_connection.obj
 0002:00006140       ??_C@_0P@HCJKHHNK@connectTimeout?$AA@ 10029140     odbc_connection.obj
 0002:00006150       ??_C@_0N@KOGODODJ@loginTimeout?$AA@ 10029150     odbc_connection.obj
 0002:00006160       ??_C@_04PMOCAHAA@open?$AA@ 10029160     odbc_connection.obj
 0002:00006168       ??_C@_08LIBBLNJP@openSync?$AA@ 10029168     odbc_connection.obj
 0002:00006174       ??_C@_05LBOHBHFK@close?$AA@ 10029174     odbc_connection.obj
 0002:0000617c       ??_C@_09HFJNDIEB@closeSync?$AA@ 1002917c     odbc_connection.obj
 0002:00006188       ??_C@_0BA@LHLAAPPP@createStatement?$AA@ 10029188     odbc_connection.obj
 0002:00006198       ??_C@_0BE@BIEENBI@createStatementSync?$AA@ 10029198     odbc_connection.obj
 0002:000061ac       ??_C@_05BKABJGDH@query?$AA@ 100291ac     odbc_connection.obj
 0002:000061b4       ??_C@_09BFAGEICC@querySync?$AA@ 100291b4     odbc_connection.obj
 0002:000061c0       ??_C@_0BB@JNDAFCDJ@beginTransaction?$AA@ 100291c0     odbc_connection.obj
 0002:000061d4       ??_C@_0BF@NGPOBALM@beginTransactionSync?$AA@ 100291d4     odbc_connection.obj
 0002:000061ec       ??_C@_0P@JANJEKEM@endTransaction?$AA@ 100291ec     odbc_connection.obj
 0002:000061fc       ??_C@_0BD@GJCHIGMC@endTransactionSync?$AA@ 100291fc     odbc_connection.obj
 0002:00006210       ??_C@_07HIFEPIJN@columns?$AA@ 10029210     odbc_connection.obj
 0002:00006218       ??_C@_06GBBAEHCO@tables?$AA@ 10029218     odbc_connection.obj
 0002:00006220       ??_C@_0BD@NGADPPFN@Argument?50?5invalid?$AA@ 10029220     odbc_connection.obj
 0002:00006234       ??_C@_0BD@DJMBJEGD@Argument?51?5invalid?$AA@ 10029234     odbc_connection.obj
 0002:00006248       ??_C@_0BM@MEFJKJPM@Argument?50?5must?5be?5a?5string?$AA@ 10029248     odbc_connection.obj
 0002:00006264       ??_C@_0BO@NBLLBCGC@Argument?51?5must?5be?5a?5function?$AA@ 10029264     odbc_connection.obj
 0002:00006284       ??_C@_0BO@EOGBJBPM@Argument?50?5must?5be?5a?5function?$AA@ 10029284     odbc_connection.obj
 0002:000062a4       ??_C@_0BH@LAGFFHHO@Error?5closing?5database?$AA@ 100292a4     odbc_connection.obj
 0002:000062bc       ??_C@_0BO@KMGKNADK@Argument?50?5must?5be?5an?5String?4?$AA@ 100292bc     odbc_connection.obj
 0002:000062dc       ??_C@_0BN@LEOGELAO@Argument?51?5must?5be?5an?5Array?4?$AA@ 100292dc     odbc_connection.obj
 0002:000062fc       ??_C@_0BP@NOEPBMNK@Argument?52?5must?5be?5a?5Function?4?$AA@ 100292fc     odbc_connection.obj
 0002:0000631c       ??_C@_0DI@IELJPIMJ@ODBCConnection?3?3Query?$CI?$CJ?3?5Argumen@ 1002931c     odbc_connection.obj
 0002:00006358       ??_C@_0ED@KKNHHINC@ODBCConnection?3?3Query?$CI?$CJ?3?5Argumen@ 10029358     odbc_connection.obj
 0002:0000639c       ??_C@_0DM@DCCPEIBP@ODBCConnection?3?3Query?$CI?$CJ?3?5Require@ 1002939c     odbc_connection.obj
 0002:000063d8       ??_C@_0DL@CFGBOCNC@ODBCConnection?3?3QuerySync?$CI?$CJ?3?5Arg@ 100293d8     odbc_connection.obj
 0002:00006414       ??_C@_0DK@GMPPEDJH@ODBCConnection?3?3QuerySync?$CI?$CJ?3?5Arg@ 10029414     odbc_connection.obj
 0002:00006450       ??_C@_0EH@NFFOFJDA@ODBCConnection?3?3QuerySync?$CI?$CJ?3?5Arg@ 10029450     odbc_connection.obj
 0002:00006498       ??_C@_0DP@PNKPKIIE@ODBCConnection?3?3QuerySync?$CI?$CJ?3?5Req@ 10029498     odbc_connection.obj
 0002:000064d8       ??_C@_0CP@FEILBCLF@?$FLnode?9odbc?$FN?5Error?5in?5ODBCConnect@ 100294d8     odbc_connection.obj
 0002:00006508       ??_C@_0CE@EIOEPLHB@Argument?50?5must?5be?5a?5string?5or?5n@ 10029508     odbc_connection.obj
 0002:0000652c       ??_C@_0CE@CGGIOADA@Argument?51?5must?5be?5a?5string?5or?5n@ 1002952c     odbc_connection.obj
 0002:00006550       ??_C@_0CE@JFPMMNPD@Argument?52?5must?5be?5a?5string?5or?5n@ 10029550     odbc_connection.obj
 0002:00006574       ??_C@_0CE@PLHANGLC@Argument?53?5must?5be?5a?5string?5or?5n@ 10029574     odbc_connection.obj
 0002:00006598       ??_C@_0CB@PEBEJMFP@Could?5not?5allocate?5enough?5memory@ 10029598     odbc_connection.obj
 0002:000065bc       ??_C@_04MLLLIHIP@null?$AA@ 100295bc     odbc_connection.obj
 0002:000065c4       ??_C@_0BN@DOFNDNLA@Argument?50?5must?5be?5a?5boolean?$AA@ 100295c4     odbc_connection.obj
 0002:000065e4       ??_7ODBCConnection@@6B@    100295e4     odbc_connection.obj
 0002:000065f0       ??_C@_0O@BANMODPA@ODBCStatement?$AA@ 100295f0     odbc_statement.obj
 0002:00006600       ??_C@_07EMGJIMLB@execute?$AA@ 10029600     odbc_statement.obj
 0002:00006608       ??_C@_0M@ODKJJCAN@executeSync?$AA@ 10029608     odbc_statement.obj
 0002:00006614       ??_C@_0O@ILLJCDID@executeDirect?$AA@ 10029614     odbc_statement.obj
 0002:00006624       ??_C@_0BC@OPJHCKHG@executeDirectSync?$AA@ 10029624     odbc_statement.obj
 0002:00006638       ??_C@_0BA@HAJACNAC@executeNonQuery?$AA@ 10029638     odbc_statement.obj
 0002:00006648       ??_C@_0BE@NOMFGCFN@executeNonQuerySync?$AA@ 10029648     odbc_statement.obj
 0002:0000665c       ??_C@_07CAPELNJI@prepare?$AA@ 1002965c     odbc_statement.obj
 0002:00006664       ??_C@_0M@JLNBCEDK@prepareSync?$AA@ 10029664     odbc_statement.obj
 0002:00006670       ??_C@_04NPNJNMMP@bind?$AA@ 10029670     odbc_statement.obj
 0002:00006678       ??_C@_08IJDGAHFE@bindSync?$AA@ 10029678     odbc_statement.obj
 0002:00006684       ??_C@_0BD@NCPGCPGA@Argument?52?5invalid?$AA@ 10029684     odbc_statement.obj
 0002:00006698       ??_C@_0DA@POAIOCPE@?$FLnode?9odbc?$FN?5Error?5in?5ODBCStateme@ 10029698     odbc_statement.obj
 0002:000066c8       ??_C@_0DG@MFPBMMCL@?$FLnode?9odbc?$FN?5Error?5in?5ODBCStateme@ 100296c8     odbc_statement.obj
 0002:00006700       ??_C@_0DA@IGHAFEMD@?$FLnode?9odbc?$FN?5Error?5in?5ODBCStateme@ 10029700     odbc_statement.obj
 0002:00006730       ??_C@_0BM@DBCDDEDD@Argument?51?5must?5be?5an?5Array?$AA@ 10029730     odbc_statement.obj
 0002:0000674c       ??_C@_0CN@GNHIOAJP@?$FLnode?9odbc?$FN?5Error?5in?5ODBCStateme@ 1002974c     odbc_statement.obj
 0002:0000677c       ??_C@_0BO@OCNLKP@Argument?50?5must?5be?5an?5integer?$AA@ 1002977c     odbc_statement.obj
 0002:0000679c       ??_7ODBCStatement@@6B@     1002979c     odbc_statement.obj
 0002:000067a8       ??_C@_0L@BFJBMIBP@ODBCResult?$AA@ 100297a8     odbc_result.obj
 0002:000067b4       ??_C@_08DKKMCBFH@fetchAll?$AA@ 100297b4     odbc_result.obj
 0002:000067c0       ??_C@_05MCKKOJDL@fetch?$AA@ 100297c0     odbc_result.obj
 0002:000067c8       ??_C@_0BA@MGFBPKH@moreResultsSync?$AA@ 100297c8     odbc_result.obj
 0002:000067d8       ??_C@_09MFIGOHDD@fetchSync?$AA@ 100297d8     odbc_result.obj
 0002:000067e4       ??_C@_0N@MOPGLFNI@fetchAllSync?$AA@ 100297e4     odbc_result.obj
 0002:000067f4       ??_C@_0BD@FMECNCB@getColumnNamesSync?$AA@ 100297f4     odbc_result.obj
 0002:00006808       ??_C@_09DEOJOEMD@fetchMode?$AA@ 10029808     odbc_result.obj
 0002:00006814       ??_C@_0BD@DNDEEEFO@Argument?53?5invalid?$AA@ 10029814     odbc_result.obj
 0002:00006828       ??_C@_0GD@ECCDDFKE@ODBCResult?3?3Fetch?$CI?$CJ?3?51?5or?52?5argu@ 10029828     odbc_result.obj
 0002:0000688c       ??_C@_0CD@GNDHJDFP@Error?5in?5ODBCResult?3?3UV_AfterFet@ 1002988c     odbc_result.obj
 0002:000068b0       ??_C@_0GG@LGJDGLPO@ODBCResult?3?3FetchAll?$CI?$CJ?3?51?5or?52?5a@ 100298b0     odbc_result.obj
 0002:00006918       ??_C@_0DC@JHPENHDI@?$FLnode?9odbc?$FN?5Error?5in?5ODBCResult?3@ 10029918     odbc_result.obj
 0002:00006950       ??_C@_0GC@OAJCCLNG@?$FLnode?9odbc?$FN?5Error?5in?5ODBCResult?3@ 10029950     odbc_result.obj
 0002:000069b4       ??_C@_0DB@DLCDGFND@?$FLnode?9odbc?$FN?5Error?5in?5ODBCResult?3@ 100299b4     odbc_result.obj
 0002:000069e8       ??_7ODBCResult@@6B@        100299e8     odbc_result.obj
 0002:000069f4       ??_C@_05DMCIJNLO@?$CFx?5?$CFX?$AA@ 100299f4     strptime.obj
 0002:000069fc       ??_C@_08KAHCGMHG@?$CFm?1?$CFd?1?$CFy?$AA@ 100299fc     strptime.obj
 0002:00006a08       ??_C@_05JFBIHENH@?$CFH?3?$CFM?$AA@ 10029a08     strptime.obj
 0002:00006a10       ??_C@_0M@DJNIDJHC@?$CFI?3?$CFM?3?$CFS?5?$CFp?$AA@ 10029a10     strptime.obj
 0002:00006a1c       ??_C@_08OAHPJFNN@?$CFH?3?$CFM?3?$CFS?$AA@ 10029a1c     strptime.obj
 0002:00006acc       ??_C@_08HCOMDCCD@iojs?4exe?$AA@ 10029acc     win_delay_load_hook.obj
 0002:00006ad8       ??_C@_08JDDNMFDB@node?4exe?$AA@ 10029ad8     win_delay_load_hook.obj
 0002:00006ae8       __real@3ff0000000000000    10029ae8     odbc.obj
 0002:00006af0       __real@4000000000000000    10029af0     odbc.obj
 0002:00006af8       __real@4008000000000000    10029af8     odbc.obj
 0002:00006b00       __real@4010000000000000    10029b00     odbc.obj
 0002:00006b08       __real@408f400000000000    10029b08     odbc.obj
 0002:00006b10       __real@40c3878000000000    10029b10     odbc.obj
 0002:00006b20       __xmm@41f00000000000000000000000000000 10029b20     odbc_connection.obj
 0002:00006c14       ??_R4exception@std@@6B@    10029c14     LIBCMT:throw_bad_alloc.obj
 0002:00006c28       ??_R3exception@std@@8      10029c28     LIBCMT:throw_bad_alloc.obj
 0002:00006c38       ??_R2exception@std@@8      10029c38     LIBCMT:throw_bad_alloc.obj
 0002:00006c40       ??_R1A@?0A@EA@exception@std@@8 10029c40     LIBCMT:throw_bad_alloc.obj
 0002:00006c5c       ??_R4bad_alloc@std@@6B@    10029c5c     LIBCMT:throw_bad_alloc.obj
 0002:00006c70       ??_R3bad_alloc@std@@8      10029c70     LIBCMT:throw_bad_alloc.obj
 0002:00006c80       ??_R2bad_alloc@std@@8      10029c80     LIBCMT:throw_bad_alloc.obj
 0002:00006c8c       ??_R1A@?0A@EA@bad_alloc@std@@8 10029c8c     LIBCMT:throw_bad_alloc.obj
 0002:00006ca8       ??_R4bad_array_new_length@std@@6B@ 10029ca8     LIBCMT:throw_bad_alloc.obj
 0002:00006cbc       ??_R3bad_array_new_length@std@@8 10029cbc     LIBCMT:throw_bad_alloc.obj
 0002:00006ccc       ??_R2bad_array_new_length@std@@8 10029ccc     LIBCMT:throw_bad_alloc.obj
 0002:00006cdc       ??_R1A@?0A@EA@bad_array_new_length@std@@8 10029cdc     LIBCMT:throw_bad_alloc.obj
 0002:00006cf8       ??_R4type_info@@6B@        10029cf8     LIBCMT:std_type_info_static.obj
 0002:00006d0c       ??_R3type_info@@8          10029d0c     LIBCMT:std_type_info_static.obj
 0002:00006d1c       ??_R2type_info@@8          10029d1c     LIBCMT:std_type_info_static.obj
 0002:00006d24       ??_R1A@?0A@EA@type_info@@8 10029d24     LIBCMT:std_type_info_static.obj
 0002:00006d40       ___safe_se_handler_table   10029d40     <linker-defined>
 0002:00006d50       ?_TraceLoggingMetadata@?1??_TlgWrite@__vcrt_trace_logging_provider@@YAJPBU_TlgProvider_t@2@PBXPBU_GUID@@2IPAU_EVENT_DATA_DESCRIPTOR@@@Z@4U_TraceLoggingMetadata_t@2@B 10029d50     libvcruntime:telemetry.obj
 0002:00006e03       ?_TraceLoggingMetadataEnd@?1??_TlgWrite@__vcrt_trace_logging_provider@@YAJPBU_TlgProvider_t@2@PBXPBU_GUID@@2IPAU_EVENT_DATA_DESCRIPTOR@@@Z@4EB 10029e03     libvcruntime:telemetry.obj
 0002:0000724c       ___rtc_iaa                 1002a24c     LIBCMT:_initsect_.obj
 0002:00007250       ___rtc_izz                 1002a250     LIBCMT:_initsect_.obj
 0002:00007254       ___rtc_taa                 1002a254     LIBCMT:_initsect_.obj
 0002:00007258       ___rtc_tzz                 1002a258     LIBCMT:_initsect_.obj
 0002:000072dc       __TI2?AVbad_alloc@std@@    1002a2dc     LIBCMT:throw_bad_alloc.obj
 0002:000072ec       __CTA2?AVbad_alloc@std@@   1002a2ec     LIBCMT:throw_bad_alloc.obj
 0002:000072f8       __CT??_R0?AVbad_alloc@std@@@8??0bad_alloc@std@@QAE@ABV01@@Z12 1002a2f8     LIBCMT:throw_bad_alloc.obj
 0002:00007314       __CT??_R0?AVexception@std@@@8??0exception@std@@QAE@ABV01@@Z12 1002a314     LIBCMT:throw_bad_alloc.obj
 0002:00007330       __TI3?AVbad_array_new_length@std@@ 1002a330     LIBCMT:throw_bad_alloc.obj
 0002:00007340       __CTA3?AVbad_array_new_length@std@@ 1002a340     LIBCMT:throw_bad_alloc.obj
 0002:00007350       __CT??_R0?AVbad_array_new_length@std@@@8??0bad_array_new_length@std@@QAE@ABV01@@Z12 1002a350     LIBCMT:throw_bad_alloc.obj
 0002:0000775c       __DELAY_IMPORT_DESCRIPTOR_node_exe 1002a75c     node:node.exe
 0002:0000777c       __NULL_DELAY_IMPORT_DESCRIPTOR 1002a77c     node:node.exe
 0002:00007978       \177node_NULL_THUNK_DATA_DLN 1002a978     node:node.exe
 0002:000096bc       \177node_NULL_THUNK_DATA_DLB 1002c6bc     node:node.exe
 0002:0000dbf0       __IMPORT_DESCRIPTOR_KERNEL32 10030bf0     kernel32:KERNEL32.dll
 0002:0000dc04       __IMPORT_DESCRIPTOR_ODBC32 10030c04     odbc32:ODBC32.dll
 0002:0000dc18       __IMPORT_DESCRIPTOR_ADVAPI32 10030c18     advapi32:ADVAPI32.dll
 0002:0000dc2c       __NULL_IMPORT_DESCRIPTOR   10030c2c     kernel32:KERNEL32.dll
 0003:00000000       ___scrt_native_dllmain_reason 10032000     LIBCMT:utility.obj
 0003:00000004       ___security_cookie_complement 10032004     LIBCMT:gs_cookie.obj
 0003:00000008       ___security_cookie         10032008     LIBCMT:gs_cookie.obj
 0003:0000000c       ___isa_enabled             1003200c     LIBCMT:_cpu_disp_.obj
 0003:00000060       __NLG_Destination          10032060     libvcruntime:_exsup_.obj
 0003:00000070       ___abort_behavior          10032070     libucrt:abort.obj
 0003:00000120       __iob                      10032120     libucrt:_file.obj
 0003:000001c8       __pwctype                  100321c8     libucrt:ctype.obj
 0003:000001d0       ___acrt_initial_locale_data 100321d0     libucrt:nlsdata.obj
 0003:00000288       ___acrt_initial_locale_pointers 10032288     libucrt:nlsdata.obj
 0003:00000290       ___acrt_wide_c_locale_string 10032290     libucrt:nlsdata.obj
 0003:00000388       __mbctype                  10032388     libucrt:mbctype.obj
 0003:00000490       __mbcasemap                10032490     libucrt:mbctype.obj
 0003:00000590       ___acrt_initial_multibyte_data 10032590     libucrt:mbctype.obj
 0003:000007b0       ___acrt_current_multibyte_data 100327b0     libucrt:mbctype.obj
 0003:000007b8       ___badioinfo               100327b8     libucrt:ioinit.obj
 0003:000007e8       ___globallocalestatus      100327e8     libucrt:glstatus.obj
 0003:000007ec       ___acrt_lconv_static_decimal 100327ec     libucrt:localeconv.obj
 0003:000007f0       ___acrt_lconv_static_W_decimal 100327f0     libucrt:localeconv.obj
 0003:000007f8       ___acrt_lconv_c            100327f8     libucrt:localeconv.obj
 0003:00000850       ___dcrt_lowio_console_output_handle 10032850     libucrt:initcon.obj
 0003:00000860       __fltused                  10032860     LIBCMT:fltused.obj
 0003:00000894       ___pfnDliNotifyHook2       10032894     win_delay_load_hook.obj
 0003:000008a0       ??_R0?AVbad_alloc@std@@@8  100328a0     LIBCMT:throw_bad_alloc.obj
 0003:000008bc       ??_R0?AVexception@std@@@8  100328bc     LIBCMT:throw_bad_alloc.obj
 0003:000008d8       ??_R0?AVbad_array_new_length@std@@@8 100328d8     LIBCMT:throw_bad_alloc.obj
 0003:00000900       ??_R0?AVtype_info@@@8      10032900     LIBCMT:std_type_info_static.obj
 0003:00000918       __imp__uv_mutex_unlock     10032918     node:node.exe
 0003:0000091c       __imp__uv_queue_work       1003291c     node:node.exe
 0003:00000920       __imp_?Global@Context@v8@@QAE?AV?$Local@VObject@v8@@@2@XZ 10032920     node:node.exe
 0003:00000924       __imp_?Value@External@v8@@QBEPAXXZ 10032924     node:node.exe
 0003:00000928       __imp_?New@External@v8@@SA?AV?$Local@VExternal@v8@@@2@PAVIsolate@2@PAX@Z 10032928     node:node.exe
 0003:0000092c       __imp_?New@Integer@v8@@SA?AV?$Local@VInteger@v8@@@2@PAVIsolate@2@H@Z 1003292c     node:node.exe
 0003:00000930       __imp_?New@Signature@v8@@SA?AV?$Local@VSignature@v8@@@2@PAVIsolate@2@V?$Local@VFunctionTemplate@v8@@@2@@Z 10032930     node:node.exe
 0003:00000934       __imp_?CollectAllGarbage@Isolate@v8@@AAEXPBD@Z 10032934     node:node.exe
 0003:00000938       __imp_?VisitHandlesForPartialDependence@Isolate@v8@@QAEXPAVPersistentHandleVisitor@2@@Z 10032938     node:node.exe
 0003:0000093c       __imp_?VisitHandlesWithClassIds@Isolate@v8@@QAEXPAVPersistentHandleVisitor@2@@Z 1003293c     node:node.exe
 0003:00000940       __imp_?VisitExternalResources@Isolate@v8@@QAEXPAVExternalResourceVisitor@2@@Z 10032940     node:node.exe
 0003:00000944       __imp_?RemoveMemoryAllocationCallback@Isolate@v8@@QAEXP6AXW4ObjectSpace@2@W4AllocationAction@2@H@Z@Z 10032944     node:node.exe
 0003:00000948       __imp_?AddMemoryAllocationCallback@Isolate@v8@@QAEXP6AXW4ObjectSpace@2@W4AllocationAction@2@H@Z01@Z 10032948     node:node.exe
 0003:0000094c       __imp_?SetCaptureStackTraceForUncaughtExceptions@Isolate@v8@@QAEX_NHW4StackTraceOptions@StackTrace@2@@Z 1003294c     node:node.exe
 0003:00000950       __imp_?SetFailedAccessCheckCallbackFunction@Isolate@v8@@QAEXP6AXV?$Local@VObject@v8@@@2@W4AccessType@2@V?$Local@VValue@v8@@@2@@Z@Z 10032950     node:node.exe
 0003:00000954       __imp_?RemoveMessageListeners@Isolate@v8@@QAEXP6AXV?$Local@VMessage@v8@@@2@V?$Local@VValue@v8@@@2@@Z@Z 10032954     node:node.exe
 0003:00000958       __imp_?AddMessageListener@Isolate@v8@@QAE_NP6AXV?$Local@VMessage@v8@@@2@V?$Local@VValue@v8@@@2@@Z1@Z 10032958     node:node.exe
 0003:0000095c       __imp_?IsDead@Isolate@v8@@QAE_NXZ 1003295c     node:node.exe
 0003:00000960       __imp_?SetAllowCodeGenerationFromStringsCallback@Isolate@v8@@QAEXP6A_NV?$Local@VContext@v8@@@2@@Z@Z 10032960     node:node.exe
 0003:00000964       __imp_?SetFatalErrorHandler@Isolate@v8@@QAEXP6AXPBD0@Z@Z 10032964     node:node.exe
 0003:00000968       __imp_?CancelTerminateExecution@Isolate@v8@@QAEXXZ 10032968     node:node.exe
 0003:0000096c       __imp_?IsExecutionTerminating@Isolate@v8@@QAE_NXZ 1003296c     node:node.exe
 0003:00000970       __imp_?TerminateExecution@Isolate@v8@@QAEXXZ 10032970     node:node.exe
 0003:00000974       __imp_?RemoveGCEpilogueCallback@Isolate@v8@@QAEXP6AXPAV12@W4GCType@2@W4GCCallbackFlags@2@@Z@Z 10032974     node:node.exe
 0003:00000978       __imp_?RemoveGCPrologueCallback@Isolate@v8@@QAEXP6AXPAV12@W4GCType@2@W4GCCallbackFlags@2@@Z@Z 10032978     node:node.exe
 0003:0000097c       __imp_?ThrowException@Isolate@v8@@QAE?AV?$Local@VValue@v8@@@2@V32@@Z 1003297c     node:node.exe
 0003:00000980       __imp_?GetCurrentContext@Isolate@v8@@QAE?AV?$Local@VContext@v8@@@2@XZ 10032980     node:node.exe
 0003:00000984       __imp_?Exit@Isolate@v8@@QAEXXZ 10032984     node:node.exe
 0003:00000988       __imp_?Enter@Isolate@v8@@QAEXXZ 10032988     node:node.exe
 0003:0000098c       __imp_?GetCurrent@Isolate@v8@@SAPAV12@XZ 1003298c     node:node.exe
 0003:00000990       __imp_?ResetToBookmark@ExternalSourceStream@ScriptCompiler@v8@@UAEXXZ 10032990     node:node.exe
 0003:00000994       __imp_?SetBookmark@ExternalSourceStream@ScriptCompiler@v8@@UAE_NXZ 10032994     node:node.exe
 0003:00000998       __imp_?CreateHandle@HandleScope@v8@@KAPAPAVObject@internal@2@PAVIsolate@42@PAV342@@Z 10032998     node:node.exe
 0003:0000099c       __imp_?CreateHandle@HandleScope@v8@@CAPAPAVObject@internal@2@PAVHeapObject@42@PAV342@@Z 1003299c     node:node.exe
 0003:000009a0       __imp_??1HandleScope@v8@@QAE@XZ 100329a0     node:node.exe
 0003:000009a4       __imp_??0HandleScope@v8@@QAE@PAVIsolate@1@@Z 100329a4     node:node.exe
 0003:000009a8       __imp_?Set@Template@v8@@QAEXV?$Local@VName@v8@@@2@V?$Local@VData@v8@@@2@W4PropertyAttribute@2@@Z 100329a8     node:node.exe
 0003:000009ac       __imp_?Error@Exception@v8@@SA?AV?$Local@VValue@v8@@@2@V?$Local@VString@v8@@@2@@Z 100329ac     node:node.exe
 0003:000009b0       __imp_?Initialize@Locker@v8@@AAEXPAVIsolate@2@@Z 100329b0     node:node.exe
 0003:000009b4       __imp_?New@Array@v8@@SA?AV?$Local@VArray@v8@@@2@PAVIsolate@2@H@Z 100329b4     node:node.exe
 0003:000009b8       __imp_?Length@Array@v8@@QBEIXZ 100329b8     node:node.exe
 0003:000009bc       __imp_?Initialize@Unlocker@v8@@AAEXPAVIsolate@2@@Z 100329bc     node:node.exe
 0003:000009c0       __imp_?New@Date@v8@@SA?AV?$MaybeLocal@VValue@v8@@@2@V?$Local@VContext@v8@@@2@N@Z 100329c0     node:node.exe
 0003:000009c4       __imp_?SetClassName@FunctionTemplate@v8@@QAEXV?$Local@VString@v8@@@2@@Z 100329c4     node:node.exe
 0003:000009c8       __imp_?PrototypeTemplate@FunctionTemplate@v8@@QAE?AV?$Local@VObjectTemplate@v8@@@2@XZ 100329c8     node:node.exe
 0003:000009cc       __imp_?InstanceTemplate@FunctionTemplate@v8@@QAE?AV?$Local@VObjectTemplate@v8@@@2@XZ 100329cc     node:node.exe
 0003:000009d0       __imp_?GetFunction@FunctionTemplate@v8@@QAE?AV?$Local@VFunction@v8@@@2@XZ 100329d0     node:node.exe
 0003:000009d4       __imp_?GetFunction@FunctionTemplate@v8@@QAE?AV?$MaybeLocal@VFunction@v8@@@2@V?$Local@VContext@v8@@@2@@Z 100329d4     node:node.exe
 0003:000009d8       __imp_?New@FunctionTemplate@v8@@SA?AV?$Local@VFunctionTemplate@v8@@@2@PAVIsolate@2@P6AXABV?$FunctionCallbackInfo@VValue@v8@@@2@@ZV?$Local@VValue@v8@@@2@V?$Local@VSignature@v8@@@2@H@Z 100329d8     node:node.exe
 0003:000009dc       __imp_?ToLocalEmpty@V8@v8@@CAXXZ 100329dc     node:node.exe
 0003:000009e0       __imp_?ClearWeak@V8@v8@@CAPAXPAPAVObject@internal@2@@Z 100329e0     node:node.exe
 0003:000009e4       __imp_?MakeWeak@V8@v8@@CAXPAPAVObject@internal@2@PAXP6AXABV?$WeakCallbackInfo@X@2@@ZW4WeakCallbackType@2@@Z 100329e4     node:node.exe
 0003:000009e8       __imp_?DisposeGlobal@V8@v8@@CAXPAPAVObject@internal@2@@Z 100329e8     node:node.exe
 0003:000009ec       __imp_?GlobalizeReference@V8@v8@@CAPAPAVObject@internal@2@PAVIsolate@42@PAPAV342@@Z 100329ec     node:node.exe
 0003:000009f0       __imp_?IntegerValue@Value@v8@@QBE_JXZ 100329f0     node:node.exe
 0003:000009f4       __imp_?NumberValue@Value@v8@@QBENXZ 100329f4     node:node.exe
 0003:000009f8       __imp_?BooleanValue@Value@v8@@QBE_NXZ 100329f8     node:node.exe
 0003:000009fc       __imp_?ToInt32@Value@v8@@QBE?AV?$MaybeLocal@VInt32@v8@@@2@V?$Local@VContext@v8@@@2@@Z 100329fc     node:node.exe
 0003:00000a00       __imp_?ToUint32@Value@v8@@QBE?AV?$MaybeLocal@VUint32@v8@@@2@V?$Local@VContext@v8@@@2@@Z 10032a00     node:node.exe
 0003:00000a04       __imp_?ToInteger@Value@v8@@QBE?AV?$MaybeLocal@VInteger@v8@@@2@V?$Local@VContext@v8@@@2@@Z 10032a04     node:node.exe
 0003:00000a08       __imp_?ToObject@Value@v8@@QBE?AV?$MaybeLocal@VObject@v8@@@2@V?$Local@VContext@v8@@@2@@Z 10032a08     node:node.exe
 0003:00000a0c       __imp_?ToDetailString@Value@v8@@QBE?AV?$MaybeLocal@VString@v8@@@2@V?$Local@VContext@v8@@@2@@Z 10032a0c     node:node.exe
 0003:00000a10       __imp_?ToString@Value@v8@@QBE?AV?$MaybeLocal@VString@v8@@@2@V?$Local@VContext@v8@@@2@@Z 10032a10     node:node.exe
 0003:00000a14       __imp_?ToNumber@Value@v8@@QBE?AV?$MaybeLocal@VNumber@v8@@@2@V?$Local@VContext@v8@@@2@@Z 10032a14     node:node.exe
 0003:00000a18       __imp_?ToBoolean@Value@v8@@QBE?AV?$MaybeLocal@VBoolean@v8@@@2@V?$Local@VContext@v8@@@2@@Z 10032a18     node:node.exe
 0003:00000a1c       __imp_?IsInt32@Value@v8@@QBE_NXZ 10032a1c     node:node.exe
 0003:00000a20       __imp_?IsNumber@Value@v8@@QBE_NXZ 10032a20     node:node.exe
 0003:00000a24       __imp_?IsBoolean@Value@v8@@QBE_NXZ 10032a24     node:node.exe
 0003:00000a28       __imp_?HasCaught@TryCatch@v8@@QBE_NXZ 10032a28     node:node.exe
 0003:00000a2c       __imp_??1TryCatch@v8@@QAE@XZ 10032a2c     node:node.exe
 0003:00000a30       __imp_??0TryCatch@v8@@QAE@PAVIsolate@1@@Z 10032a30     node:node.exe
 0003:00000a34       __imp_?Escape@EscapableHandleScope@v8@@AAEPAPAVObject@internal@2@PAPAV342@@Z 10032a34     node:node.exe
 0003:00000a38       __imp_??0EscapableHandleScope@v8@@QAE@PAVIsolate@1@@Z 10032a38     node:node.exe
 0003:00000a3c       __imp_?Concat@String@v8@@SA?AV?$Local@VString@v8@@@2@V32@0@Z 10032a3c     node:node.exe
 0003:00000a40       __imp_?NewFromTwoByte@String@v8@@SA?AV?$MaybeLocal@VString@v8@@@2@PAVIsolate@2@PBGW4NewStringType@2@H@Z 10032a40     node:node.exe
 0003:00000a44       __imp_?NewFromUtf8@String@v8@@SA?AV?$MaybeLocal@VString@v8@@@2@PAVIsolate@2@PBDW4NewStringType@2@H@Z 10032a44     node:node.exe
 0003:00000a48       __imp_?Write@String@v8@@QBEHPAGHHH@Z 10032a48     node:node.exe
 0003:00000a4c       __imp_?Length@String@v8@@QBEHXZ 10032a4c     node:node.exe
 0003:00000a50       __imp_?New@Number@v8@@SA?AV?$Local@VNumber@v8@@@2@PAVIsolate@2@N@Z 10032a50     node:node.exe
 0003:00000a54       __imp_?SlowGetAlignedPointerFromInternalField@Object@v8@@AAEPAXH@Z 10032a54     node:node.exe
 0003:00000a58       __imp_?SlowGetInternalField@Object@v8@@AAE?AV?$Local@VValue@v8@@@2@H@Z 10032a58     node:node.exe
 0003:00000a5c       __imp_?New@Object@v8@@SA?AV?$Local@VObject@v8@@@2@PAVIsolate@2@@Z 10032a5c     node:node.exe
 0003:00000a60       __imp_?SetAlignedPointerInInternalField@Object@v8@@QAEXHPAX@Z 10032a60     node:node.exe
 0003:00000a64       __imp_?SetInternalField@Object@v8@@QAEXHV?$Local@VValue@v8@@@2@@Z 10032a64     node:node.exe
 0003:00000a68       __imp_?InternalFieldCount@Object@v8@@QAEHXZ 10032a68     node:node.exe
 0003:00000a6c       __imp_?SetPrototype@Object@v8@@QAE_NV?$Local@VValue@v8@@@2@@Z 10032a6c     node:node.exe
 0003:00000a70       __imp_?Get@Object@v8@@QAE?AV?$Local@VValue@v8@@@2@I@Z 10032a70     node:node.exe
 0003:00000a74       __imp_?Set@Object@v8@@QAE_NV?$Local@VValue@v8@@@2@0@Z 10032a74     node:node.exe
 0003:00000a78       __imp_?Set@Object@v8@@QAE?AV?$Maybe@_N@2@V?$Local@VContext@v8@@@2@IV?$Local@VValue@v8@@@2@@Z 10032a78     node:node.exe
 0003:00000a7c       __imp_?SetName@Function@v8@@QAEXV?$Local@VString@v8@@@2@@Z 10032a7c     node:node.exe
 0003:00000a80       __imp_?NewInstance@Function@v8@@QBE?AV?$Local@VObject@v8@@@2@HQAV?$Local@VValue@v8@@@2@@Z 10032a80     node:node.exe
 0003:00000a84       __imp_?NewInstance@Function@v8@@QBE?AV?$MaybeLocal@VObject@v8@@@2@V?$Local@VContext@v8@@@2@HQAV?$Local@VValue@v8@@@2@@Z 10032a84     node:node.exe
 0003:00000a88       __imp_?SetInternalFieldCount@ObjectTemplate@v8@@QAEXH@Z 10032a88     node:node.exe
 0003:00000a8c       __imp_?SetHandler@ObjectTemplate@v8@@QAEXABUIndexedPropertyHandlerConfiguration@2@@Z 10032a8c     node:node.exe
 0003:00000a90       __imp_?NewInstance@ObjectTemplate@v8@@QAE?AV?$MaybeLocal@VObject@v8@@@2@V?$Local@VContext@v8@@@2@@Z 10032a90     node:node.exe
 0003:00000a94       __imp_?New@ObjectTemplate@v8@@SA?AV?$Local@VObjectTemplate@v8@@@2@PAVIsolate@2@V?$Local@VFunctionTemplate@v8@@@2@@Z 10032a94     node:node.exe
 0003:00000a98       __imp__uv_mutex_lock       10032a98     node:node.exe
 0003:00000a9c       __imp_?FatalException@node@@YAXPAVIsolate@v8@@ABVTryCatch@3@@Z 10032a9c     node:node.exe
 0003:00000aa0       __imp__node_module_register 10032aa0     node:node.exe
 0003:00000aa4       __imp_?MakeCallback@node@@YA?AV?$Local@VValue@v8@@@v8@@PAVIsolate@3@V?$Local@VObject@v8@@@3@V?$Local@VFunction@v8@@@3@HPAV23@@Z 10032aa4     node:node.exe
 0003:00000aa8       __imp__uv_mutex_init       10032aa8     node:node.exe
 0003:00000aac       __imp__uv_default_loop     10032aac     node:node.exe
 0003:00000ab0       __imp__uv_unref            10032ab0     node:node.exe
 0003:00000ab4       __imp_?LowMemoryNotification@Isolate@v8@@QAEXXZ 10032ab4     node:node.exe
 0003:00000ab8       __imp_?TypeError@Exception@v8@@SA?AV?$Local@VValue@v8@@@2@V?$Local@VString@v8@@@2@@Z 10032ab8     node:node.exe
 0003:00000abc       __imp_?Value@Boolean@v8@@QBE_NXZ 10032abc     node:node.exe
 0003:00000ac0       __imp_?Equals@Value@v8@@QBE_NV?$Local@VValue@v8@@@2@@Z 10032ac0     node:node.exe
 0003:00000ac4       __imp_?Uint32Value@Value@v8@@QBEIXZ 10032ac4     node:node.exe
 0003:00000ac8       __imp_?IsExternal@Value@v8@@QBE_NXZ 10032ac8     node:node.exe
 0003:00000acc       __imp_?IsObject@Value@v8@@QBE_NXZ 10032acc     node:node.exe
 0003:00000ad0       __imp_?IsArray@Value@v8@@QBE_NXZ 10032ad0     node:node.exe
 0003:00000ad4       __imp_?IsFunction@Value@v8@@QBE_NXZ 10032ad4     node:node.exe
 0003:00000ad8       __imp_??1Value@String@v8@@QAE@XZ 10032ad8     node:node.exe
 0003:00000adc       __imp_??0Value@String@v8@@QAE@V?$Local@VValue@v8@@@2@@Z 10032adc     node:node.exe
 0003:00000ae0       __imp_?Has@Object@v8@@QAE_NV?$Local@VValue@v8@@@2@@Z 10032ae0     node:node.exe
 0003:00000ae4       __imp_?Get@Object@v8@@QAE?AV?$Local@VValue@v8@@@2@V32@@Z 10032ae4     node:node.exe
 0003:00000ae8       __imp_?SetAccessor@ObjectTemplate@v8@@QAEXV?$Local@VName@v8@@@2@P6AX0ABV?$PropertyCallbackInfo@VValue@v8@@@2@@ZP6AX0V?$Local@VValue@v8@@@2@ABV?$PropertyCallbackInfo@X@2@@Z3W4AccessControl@2@W4PropertyAttribute@2@V?$Local@VAccessorSignature@v8@@@2@@Z 10032ae8     node:node.exe
 0003:00000aec       __imp_?Int32Value@Value@v8@@QBEHXZ 10032aec     node:node.exe
 0003:00000af0       __imp_?Value@Int32@v8@@QBEHXZ 10032af0     node:node.exe
 0003:00000af4       \177node_NULL_THUNK_DATA_DLA 10032af4     node:node.exe
 0003:00000af8       __hmod__node_exe           10032af8     node:node.exe
 0003:00000afc       ___scrt_current_native_startup_state 10032afc     LIBCMT:utility.obj
 0003:00000b00       ___scrt_native_startup_lock 10032b00     LIBCMT:utility.obj
 0003:00000e44       ___isa_available           10032e44     LIBCMT:_cpu_disp_.obj
 0003:00000e48       ___favor                   10032e48     LIBCMT:_cpu_disp_.obj
 0003:00000e4c       ___scrt_debugger_hook_flag 10032e4c     LIBCMT:utility_desktop.obj
 0003:00000e50       ?__type_info_root_node@@3U__type_info_node@@A 10032e50     LIBCMT:tncleanup.obj
 0003:00000e58       ?_OptionsStorage@?1??__local_stdio_printf_options@@9@4_KA 10032e58     LIBCMT:default_local_stdio_options.obj
 0003:00000e60       ?_OptionsStorage@?1??__local_stdio_scanf_options@@9@4_KA 10032e60     LIBCMT:default_local_stdio_options.obj
 0003:00000e68       ___pPurecall               10032e68     libvcruntime:purevirt_data.obj
 0003:00000ee4       ?pArgList@UnDecorator@@0PAVReplicator@@A 10032ee4     libvcruntime:undname.obj
 0003:00000ee8       ?pZNameList@UnDecorator@@0PAVReplicator@@A 10032ee8     libvcruntime:undname.obj
 0003:00000eec       ?pTemplateArgList@UnDecorator@@0PAVReplicator@@A 10032eec     libvcruntime:undname.obj
 0003:00000ef0       ?gName@UnDecorator@@0PBDB  10032ef0     libvcruntime:undname.obj
 0003:00000ef4       ?name@UnDecorator@@0PBDB   10032ef4     libvcruntime:undname.obj
 0003:00000ef8       ?outputString@UnDecorator@@0PADA 10032ef8     libvcruntime:undname.obj
 0003:00000efc       ?maxStringLength@UnDecorator@@0HA 10032efc     libvcruntime:undname.obj
 0003:00000f00       ?disableFlags@UnDecorator@@0KA 10032f00     libvcruntime:undname.obj
 0003:00000f04       ?fExplicitTemplateParams@UnDecorator@@0_NA 10032f04     libvcruntime:undname.obj
 0003:00000f05       ?fGetTemplateArgumentList@UnDecorator@@0_NA 10032f05     libvcruntime:undname.obj
 0003:00000f08       ?m_pGetParameter@UnDecorator@@0P6APADJ@ZA 10032f08     libvcruntime:undname.obj
 0003:00000f30       __environ_table            10032f30     libucrt:environment_initialization.obj
 0003:00000f34       __wenviron_table           10032f34     libucrt:environment_initialization.obj
 0003:00000f38       ___dcrt_initial_wide_environment 10032f38     libucrt:environment_initialization.obj
 0003:00000f3c       ___dcrt_initial_narrow_environment 10032f3c     libucrt:environment_initialization.obj
 0003:00000f40       ___acrt_atexit_table       10032f40     libucrt:onexit.obj
 0003:00000f4c       ___acrt_at_quick_exit_table 10032f4c     libucrt:onexit.obj
 0003:00000f5c       ?_timezone@@3V?$dual_state_global@J@__crt_state_management@@A 10032f5c     libucrt:timeset.obj
 0003:00000f60       ?_daylight@@3V?$dual_state_global@H@__crt_state_management@@A 10032f60     libucrt:timeset.obj
 0003:00000f64       ?_dstbias@@3V?$dual_state_global@J@__crt_state_management@@A 10032f64     libucrt:timeset.obj
 0003:00001030       __nstream                  10033030     libucrt:_file.obj
 0003:00001034       ___piob                    10033034     libucrt:_file.obj
 0003:00001038       __cflush                   10033038     libucrt:_file.obj
 0003:0000104c       ___acrt_locale_changed_data 1003304c     libucrt:wsetlocale.obj
 0003:00001050       ___acrt_current_locale_data 10033050     libucrt:nlsdata.obj
 0003:0000126c       ___mblocalename            1003326c     libucrt:mbctype.obj
 0003:00001270       ___mbcodepage              10033270     libucrt:mbctype.obj
 0003:00001274       ___ismbcodepage            10033274     libucrt:mbctype.obj
 0003:00001278       ___mbulinfo                10033278     libucrt:mbctype.obj
 0003:0000128c       ___acrt_heap               1003328c     libucrt:heap_handle.obj
 0003:00001290       ___pioinfo                 10033290     libucrt:ioinit.obj
 0003:00001490       __nhandle                  10033490     libucrt:ioinit.obj
 0003:00001494       ___argv                    10033494     libucrt:argv_data.obj
 0003:00001498       ___wargv                   10033498     libucrt:argv_data.obj
 0003:0000149c       __acmdln                   1003349c     libucrt:argv_data.obj
 0003:000014a0       __wcmdln                   100334a0     libucrt:argv_data.obj
 0003:000014a8       ___acrt_stdout_buffer      100334a8     libucrt:_sftbuf.obj
 0003:000014ac       ___acrt_stderr_buffer      100334ac     libucrt:_sftbuf.obj
 0003:000014b8       ___acrt_lconv_static_null  100334b8     libucrt:localeconv.obj
 0003:000014bc       ___acrt_lconv_static_W_null 100334bc     libucrt:localeconv.obj
 0003:000014c0       ___fastflag                100334c0     libucrt:fp_flags.obj
 0003:000014c8       ?DloadKernel32@@3PAUHINSTANCE__@@A 100334c8     DelayImp:delayhlp.obj
 0003:000014cc       ?DloadAcquireSRWLockExclusive@@3P6GXPAK@ZA 100334cc     DelayImp:delayhlp.obj
 0003:000014d0       ?DloadReleaseSRWLockExclusive@@3P6GXPAK@ZA 100334d0     DelayImp:delayhlp.obj
 0003:000014d4       ?DloadSrwLock@@3KA         100334d4     DelayImp:delayhlp.obj
 0003:000014d8       ?DloadSectionLockCount@@3KA 100334d8     DelayImp:delayhlp.obj
 0003:000014dc       ?DloadSectionOldProtection@@3KA 100334dc     DelayImp:delayhlp.obj
 0003:000014e0       ?DloadSectionCommitPermanent@@3KA 100334e0     DelayImp:delayhlp.obj
 0003:000014e4       ___pfnDliFailureHook2      100334e4     DelayImp:delayhk1.obj
 0003:000014e8       ?g_odbcMutex@ODBC@@2U_RTL_CRITICAL_SECTION@@A 100334e8     odbc.obj
 0003:00001500       ?g_async@ODBC@@2Uuv_async_s@@A 10033500     odbc.obj
 0003:00001574       ?constructor@ODBC@@2V?$Persistent@VFunction@v8@@V?$NonCopyablePersistentTraits@VFunction@v8@@@2@@Nan@@A 10033574     odbc.obj
 0003:00001578       ?OPTION_NORESULTS@ODBCConnection@@2V?$Persistent@VString@v8@@V?$NonCopyablePersistentTraits@VString@v8@@@2@@Nan@@A 10033578     odbc_connection.obj
 0003:0000157c       ?OPTION_PARAMS@ODBCConnection@@2V?$Persistent@VString@v8@@V?$NonCopyablePersistentTraits@VString@v8@@@2@@Nan@@A 1003357c     odbc_connection.obj
 0003:00001580       ?constructor@ODBCConnection@@2V?$Persistent@VFunction@v8@@V?$NonCopyablePersistentTraits@VFunction@v8@@@2@@Nan@@A 10033580     odbc_connection.obj
 0003:00001584       ?OPTION_SQL@ODBCConnection@@2V?$Persistent@VString@v8@@V?$NonCopyablePersistentTraits@VString@v8@@@2@@Nan@@A 10033584     odbc_connection.obj
 0003:00001588       ?constructor@ODBCStatement@@2V?$Persistent@VFunction@v8@@V?$NonCopyablePersistentTraits@VFunction@v8@@@2@@Nan@@A 10033588     odbc_statement.obj
 0003:0000158c       ?constructor@ODBCResult@@2V?$Persistent@VFunction@v8@@V?$NonCopyablePersistentTraits@VFunction@v8@@@2@@Nan@@A 1003358c     odbc_result.obj
 0003:00001590       ?OPTION_FETCH_MODE@ODBCResult@@2V?$Persistent@VString@v8@@V?$NonCopyablePersistentTraits@VString@v8@@@2@@Nan@@A 10033590     odbc_result.obj
 0003:00001594       ___dyn_tls_init_callback   10033594     <common>
 0003:00001598       ___scrt_ucrt_dll_is_in_use 10033598     <common>
 0003:0000159c       __pDestructExceptionObject 1003359c     <common>
 0003:000015a0       __pmatherr                 100335a0     <common>
 0003:000015a4       ___use_sse2_mathfcns       100335a4     <common>

 entry point at        0001:0000f336

 Static symbols

 0000:fffc7000       .debug$S                   10000000     node:node.exe
 0000:fffc7000       .debug$S                   10000000     kernel32:KERNEL32.dll
 0000:fffc7000       .debug$S                   10000000     kernel32:KERNEL32.dll
 0000:fffc7000       .debug$S                   10000000     kernel32:KERNEL32.dll
 0000:fffc7000       .debug$S                   10000000     kernel32:KERNEL32.dll
 0000:fffc7000       .debug$S                   10000000     kernel32:KERNEL32.dll
 0000:fffc7000       .debug$S                   10000000     kernel32:KERNEL32.dll
 0000:fffc7000       .debug$S                   10000000     kernel32:KERNEL32.dll
 0000:fffc7000       .debug$S                   10000000     kernel32:KERNEL32.dll
 0000:fffc7000       .debug$S                   10000000     kernel32:KERNEL32.dll
 0000:fffc7000       .debug$S                   10000000     kernel32:KERNEL32.dll
 0000:fffc7000       .debug$S                   10000000     kernel32:KERNEL32.dll
 0000:fffc7000       .debug$S                   10000000     kernel32:KERNEL32.dll
 0000:fffc7000       .debug$S                   10000000     kernel32:KERNEL32.dll
 0000:fffc7000       .debug$S                   10000000     kernel32:KERNEL32.dll
 0000:fffc7000       .debug$S                   10000000     kernel32:KERNEL32.dll
 0000:fffc7000       .debug$S                   10000000     kernel32:KERNEL32.dll
 0000:fffc7000       .debug$S                   10000000     kernel32:KERNEL32.dll
 0000:fffc7000       .debug$S                   10000000     kernel32:KERNEL32.dll
 0000:fffc7000       .debug$S                   10000000     kernel32:KERNEL32.dll
 0000:fffc7000       .debug$S                   10000000     kernel32:KERNEL32.dll
 0000:fffc7000       .debug$S                   10000000     kernel32:KERNEL32.dll
 0000:fffc7000       .debug$S                   10000000     kernel32:KERNEL32.dll
 0000:fffc7000       .debug$S                   10000000     kernel32:KERNEL32.dll
 0000:fffc7000       .debug$S                   10000000     kernel32:KERNEL32.dll
 0000:fffc7000       .debug$S                   10000000     kernel32:KERNEL32.dll
 0000:fffc7000       .debug$S                   10000000     kernel32:KERNEL32.dll
 0000:fffc7000       .debug$S                   10000000     kernel32:KERNEL32.dll
 0000:fffc7000       .debug$S                   10000000     kernel32:KERNEL32.dll
 0000:fffc7000       .debug$S                   10000000     kernel32:KERNEL32.dll
 0000:fffc7000       .debug$S                   10000000     kernel32:KERNEL32.dll
 0000:fffc7000       .debug$S                   10000000     kernel32:KERNEL32.dll
 0000:fffc7000       .debug$S                   10000000     kernel32:KERNEL32.dll
 0000:fffc7000       .debug$S                   10000000     kernel32:KERNEL32.dll
 0000:fffc7000       .debug$S                   10000000     kernel32:KERNEL32.dll
 0000:fffc7000       .debug$S                   10000000     kernel32:KERNEL32.dll
 0000:fffc7000       .debug$S                   10000000     kernel32:KERNEL32.dll
 0000:fffc7000       .debug$S                   10000000     kernel32:KERNEL32.dll
 0000:fffc7000       .debug$S                   10000000     kernel32:KERNEL32.dll
 0000:fffc7000       .debug$S                   10000000     kernel32:KERNEL32.dll
 0000:fffc7000       .debug$S                   10000000     kernel32:KERNEL32.dll
 0000:fffc7000       .debug$S                   10000000     kernel32:KERNEL32.dll
 0000:fffc7000       .debug$S                   10000000     kernel32:KERNEL32.dll
 0000:fffc7000       .debug$S                   10000000     kernel32:KERNEL32.dll
 0000:fffc7000       .debug$S                   10000000     kernel32:KERNEL32.dll
 0000:fffc7000       .debug$S                   10000000     kernel32:KERNEL32.dll
 0000:fffc7000       .debug$S                   10000000     kernel32:KERNEL32.dll
 0000:fffc7000       .debug$S                   10000000     kernel32:KERNEL32.dll
 0000:fffc7000       .debug$S                   10000000     kernel32:KERNEL32.dll
 0000:fffc7000       .debug$S                   10000000     kernel32:KERNEL32.dll
 0000:fffc7000       .debug$S                   10000000     kernel32:KERNEL32.dll
 0000:fffc7000       .debug$S                   10000000     kernel32:KERNEL32.dll
 0000:fffc7000       .debug$S                   10000000     odbc_bindings.exp
 0000:fffc7000       .debug$S                   10000000     kernel32:KERNEL32.dll
 0000:fffc7000       .debug$S                   10000000     kernel32:KERNEL32.dll
 0000:fffc7000       .debug$S                   10000000     kernel32:KERNEL32.dll
 0000:fffc7000       .debug$S                   10000000     kernel32:KERNEL32.dll
 0000:fffc7000       .debug$S                   10000000     kernel32:KERNEL32.dll
 0000:fffc7000       .debug$S                   10000000     kernel32:KERNEL32.dll
 0000:fffc7000       .debug$S                   10000000     kernel32:KERNEL32.dll
 0000:fffc7000       .debug$S                   10000000     kernel32:KERNEL32.dll
 0000:fffc7000       .debug$S                   10000000     kernel32:KERNEL32.dll
 0000:fffc7000       .debug$S                   10000000     kernel32:KERNEL32.dll
 0000:fffc7000       .debug$S                   10000000     kernel32:KERNEL32.dll
 0000:fffc7000       .debug$S                   10000000     kernel32:KERNEL32.dll
 0000:fffc7000       .debug$S                   10000000     kernel32:KERNEL32.dll
 0000:fffc7000       .debug$S                   10000000     kernel32:KERNEL32.dll
 0000:fffc7000       .debug$S                   10000000     kernel32:KERNEL32.dll
 0000:fffc7000       .debug$S                   10000000     kernel32:KERNEL32.dll
 0000:fffc7000       .debug$S                   10000000     kernel32:KERNEL32.dll
 0000:fffc7000       .debug$S                   10000000     kernel32:KERNEL32.dll
 0000:fffc7000       .debug$S                   10000000     kernel32:KERNEL32.dll
 0000:fffc7000       .debug$S                   10000000     kernel32:KERNEL32.dll
 0000:fffc7000       .debug$S                   10000000     kernel32:KERNEL32.dll
 0000:fffc7000       .debug$S                   10000000     kernel32:KERNEL32.dll
 0000:fffc7000       .debug$S                   10000000     kernel32:KERNEL32.dll
 0000:fffc7000       .debug$S                   10000000     kernel32:KERNEL32.dll
 0000:fffc7000       .debug$S                   10000000     kernel32:KERNEL32.dll
 0000:fffc7000       .debug$S                   10000000     kernel32:KERNEL32.dll
 0000:fffc7000       .debug$S                   10000000     kernel32:KERNEL32.dll
 0000:fffc7000       .debug$S                   10000000     kernel32:KERNEL32.dll
 0000:fffc7000       .debug$S                   10000000     kernel32:KERNEL32.dll
 0000:fffc7000       .debug$S                   10000000     kernel32:KERNEL32.dll
 0000:fffc7000       .debug$S                   10000000     kernel32:KERNEL32.dll
 0000:fffc7000       .debug$S                   10000000     kernel32:KERNEL32.dll
 0000:fffc7000       .debug$S                   10000000     advapi32:ADVAPI32.dll
 0000:fffc7000       .debug$S                   10000000     odbc32:ODBC32.dll
 0000:fffc7000       .debug$S                   10000000     odbc32:ODBC32.dll
 0000:fffc7000       .debug$S                   10000000     odbc32:ODBC32.dll
 0000:fffc7000       .debug$S                   10000000     odbc32:ODBC32.dll
 0000:fffc7000       .debug$S                   10000000     odbc32:ODBC32.dll
 0000:fffc7000       .debug$S                   10000000     odbc32:ODBC32.dll
 0000:fffc7000       .debug$S                   10000000     odbc32:ODBC32.dll
 0000:fffc7000       .debug$S                   10000000     odbc32:ODBC32.dll
 0000:fffc7000       .debug$S                   10000000     odbc32:ODBC32.dll
 0000:fffc7000       .debug$S                   10000000     odbc32:ODBC32.dll
 0000:fffc7000       .debug$S                   10000000     odbc32:ODBC32.dll
 0000:fffc7000       .debug$S                   10000000     odbc32:ODBC32.dll
 0000:fffc7000       .debug$S                   10000000     odbc32:ODBC32.dll
 0000:fffc7000       .debug$S                   10000000     odbc32:ODBC32.dll
 0000:fffc7000       .debug$S                   10000000     odbc32:ODBC32.dll
 0000:fffc7000       .debug$S                   10000000     odbc32:ODBC32.dll
 0000:fffc7000       .debug$S                   10000000     odbc32:ODBC32.dll
 0000:fffc7000       .debug$S                   10000000     odbc32:ODBC32.dll
 0000:fffc7000       .debug$S                   10000000     odbc32:ODBC32.dll
 0000:fffc7000       .debug$S                   10000000     odbc32:ODBC32.dll
 0000:fffc7000       .debug$S                   10000000     odbc32:ODBC32.dll
 0000:fffc7000       .debug$S                   10000000     odbc32:ODBC32.dll
 0000:fffc7000       .debug$S                   10000000     odbc32:ODBC32.dll
 0000:fffc7000       .debug$S                   10000000     node:node.exe
 0000:fffc7000       .debug$S                   10000000     node:node.exe
 0000:fffc7000       .debug$S                   10000000     node:node.exe
 0000:fffc7000       .debug$S                   10000000     node:node.exe
 0000:fffc7000       .debug$S                   10000000     node:node.exe
 0000:fffc7000       .debug$S                   10000000     node:node.exe
 0000:fffc7000       .debug$S                   10000000     node:node.exe
 0000:fffc7000       .debug$S                   10000000     node:node.exe
 0000:fffc7000       .debug$S                   10000000     node:node.exe
 0000:fffc7000       .debug$S                   10000000     node:node.exe
 0000:fffc7000       .debug$S                   10000000     node:node.exe
 0000:fffc7000       .debug$S                   10000000     node:node.exe
 0000:fffc7000       .debug$S                   10000000     node:node.exe
 0000:fffc7000       .debug$S                   10000000     node:node.exe
 0000:fffc7000       .debug$S                   10000000     node:node.exe
 0000:fffc7000       .debug$S                   10000000     node:node.exe
 0000:fffc7000       .debug$S                   10000000     node:node.exe
 0000:fffc7000       .debug$S                   10000000     node:node.exe
 0000:fffc7000       .debug$S                   10000000     node:node.exe
 0000:fffc7000       .debug$S                   10000000     node:node.exe
 0000:fffc7000       .debug$S                   10000000     node:node.exe
 0000:fffc7000       .debug$S                   10000000     node:node.exe
 0000:fffc7000       .debug$S                   10000000     node:node.exe
 0000:fffc7000       .debug$S                   10000000     node:node.exe
 0000:fffc7000       .debug$S                   10000000     node:node.exe
 0000:fffc7000       .debug$S                   10000000     node:node.exe
 0000:fffc7000       .debug$S                   10000000     node:node.exe
 0000:fffc7000       .debug$S                   10000000     node:node.exe
 0000:fffc7000       .debug$S                   10000000     node:node.exe
 0000:fffc7000       .debug$S                   10000000     node:node.exe
 0000:fffc7000       .debug$S                   10000000     node:node.exe
 0000:fffc7000       .debug$S                   10000000     node:node.exe
 0000:fffc7000       .debug$S                   10000000     node:node.exe
 0000:fffc7000       .debug$S                   10000000     node:node.exe
 0000:fffc7000       .debug$S                   10000000     node:node.exe
 0000:fffc7000       .debug$S                   10000000     node:node.exe
 0000:fffc7000       .debug$S                   10000000     node:node.exe
 0000:fffc7000       .debug$S                   10000000     node:node.exe
 0000:fffc7000       .debug$S                   10000000     node:node.exe
 0000:fffc7000       .debug$S                   10000000     node:node.exe
 0000:fffc7000       .debug$S                   10000000     node:node.exe
 0000:fffc7000       .debug$S                   10000000     node:node.exe
 0000:fffc7000       .debug$S                   10000000     node:node.exe
 0000:fffc7000       .debug$S                   10000000     node:node.exe
 0000:fffc7000       .debug$S                   10000000     node:node.exe
 0000:fffc7000       .debug$S                   10000000     node:node.exe
 0000:fffc7000       .debug$S                   10000000     node:node.exe
 0000:fffc7000       .debug$S                   10000000     node:node.exe
 0000:fffc7000       .debug$S                   10000000     node:node.exe
 0000:fffc7000       .debug$S                   10000000     node:node.exe
 0000:fffc7000       .debug$S                   10000000     node:node.exe
 0000:fffc7000       .debug$S                   10000000     node:node.exe
 0000:fffc7000       .debug$S                   10000000     node:node.exe
 0000:fffc7000       .debug$S                   10000000     node:node.exe
 0000:fffc7000       .debug$S                   10000000     node:node.exe
 0000:fffc7000       .debug$S                   10000000     node:node.exe
 0000:fffc7000       .debug$S                   10000000     node:node.exe
 0000:fffc7000       .debug$S                   10000000     node:node.exe
 0000:fffc7000       .debug$S                   10000000     node:node.exe
 0000:fffc7000       .debug$S                   10000000     node:node.exe
 0000:fffc7000       .debug$S                   10000000     node:node.exe
 0000:fffc7000       .debug$S                   10000000     node:node.exe
 0000:fffc7000       .debug$S                   10000000     node:node.exe
 0000:fffc7000       .debug$S                   10000000     node:node.exe
 0000:fffc7000       .debug$S                   10000000     node:node.exe
 0000:fffc7000       .debug$S                   10000000     node:node.exe
 0000:fffc7000       .debug$S                   10000000     node:node.exe
 0000:fffc7000       .debug$S                   10000000     node:node.exe
 0000:fffc7000       .debug$S                   10000000     node:node.exe
 0000:fffc7000       .debug$S                   10000000     node:node.exe
 0000:fffc7000       .debug$S                   10000000     node:node.exe
 0000:fffc7000       .debug$S                   10000000     node:node.exe
 0000:fffc7000       .debug$S                   10000000     node:node.exe
 0000:fffc7000       .debug$S                   10000000     node:node.exe
 0000:fffc7000       .debug$S                   10000000     node:node.exe
 0000:fffc7000       .debug$S                   10000000     node:node.exe
 0000:fffc7000       .debug$S                   10000000     node:node.exe
 0000:fffc7000       .debug$S                   10000000     node:node.exe
 0000:fffc7000       .debug$S                   10000000     node:node.exe
 0000:fffc7000       .debug$S                   10000000     node:node.exe
 0000:fffc7000       .debug$S                   10000000     node:node.exe
 0000:fffc7000       .debug$S                   10000000     node:node.exe
 0000:fffc7000       .debug$S                   10000000     node:node.exe
 0000:fffc7000       .debug$S                   10000000     node:node.exe
 0000:fffc7000       .debug$S                   10000000     node:node.exe
 0000:fffc7000       .debug$S                   10000000     node:node.exe
 0000:fffc7000       .debug$S                   10000000     node:node.exe
 0000:fffc7000       .debug$S                   10000000     node:node.exe
 0000:fffc7000       .debug$S                   10000000     node:node.exe
 0000:fffc7000       .debug$S                   10000000     node:node.exe
 0000:fffc7000       .debug$S                   10000000     node:node.exe
 0000:fffc7000       .debug$S                   10000000     node:node.exe
 0000:fffc7000       .debug$S                   10000000     node:node.exe
 0000:fffc7000       .debug$S                   10000000     node:node.exe
 0000:fffc7000       .debug$S                   10000000     node:node.exe
 0000:fffc7000       .debug$S                   10000000     node:node.exe
 0000:fffc7000       .debug$S                   10000000     node:node.exe
 0000:fffc7000       .debug$S                   10000000     node:node.exe
 0000:fffc7000       .debug$S                   10000000     node:node.exe
 0000:fffc7000       .debug$S                   10000000     node:node.exe
 0000:fffc7000       .debug$S                   10000000     node:node.exe
 0000:fffc7000       .debug$S                   10000000     node:node.exe
 0000:fffc7000       .debug$S                   10000000     node:node.exe
 0000:fffc7000       .debug$S                   10000000     node:node.exe
 0000:fffc7000       .debug$S                   10000000     node:node.exe
 0000:fffc7000       .debug$S                   10000000     node:node.exe
 0000:fffc7000       .debug$S                   10000000     node:node.exe
 0000:fffc7000       .debug$S                   10000000     node:node.exe
 0000:fffc7000       .debug$S                   10000000     node:node.exe
 0000:fffc7000       .debug$S                   10000000     node:node.exe
 0000:fffc7000       .debug$S                   10000000     node:node.exe
 0000:fffc7000       .debug$S                   10000000     node:node.exe
 0000:fffc7000       .debug$S                   10000000     node:node.exe
 0000:fffc7000       .debug$S                   10000000     node:node.exe
 0000:fffc7000       .debug$S                   10000000     node:node.exe
 0000:fffc7000       .debug$S                   10000000     node:node.exe
 0000:fffc7000       .debug$S                   10000000     node:node.exe
 0000:fffc7000       .debug$S                   10000000     node:node.exe
 0000:fffc7000       .debug$S                   10000000     kernel32:KERNEL32.dll
 0001:00000260       ??__E?constructor@ODBC@@2V?$Persistent@VFunction@v8@@V?$NonCopyablePersistentTraits@VFunction@v8@@@2@@Nan@@A@@YAXXZ 10001260 f   odbc.obj
 0001:00000280       ??__E?constructor@ODBCConnection@@2V?$Persistent@VFunction@v8@@V?$NonCopyablePersistentTraits@VFunction@v8@@@2@@Nan@@A@@YAXXZ 10001280 f   odbc_connection.obj
 0001:000002a0       ??__E?OPTION_SQL@ODBCConnection@@2V?$Persistent@VString@v8@@V?$NonCopyablePersistentTraits@VString@v8@@@2@@Nan@@A@@YAXXZ 100012a0 f   odbc_connection.obj
 0001:000002c0       ??__E?OPTION_PARAMS@ODBCConnection@@2V?$Persistent@VString@v8@@V?$NonCopyablePersistentTraits@VString@v8@@@2@@Nan@@A@@YAXXZ 100012c0 f   odbc_connection.obj
 0001:000002e0       ??__E?OPTION_NORESULTS@ODBCConnection@@2V?$Persistent@VString@v8@@V?$NonCopyablePersistentTraits@VString@v8@@@2@@Nan@@A@@YAXXZ 100012e0 f   odbc_connection.obj
 0001:00000300       ??__E?constructor@ODBCStatement@@2V?$Persistent@VFunction@v8@@V?$NonCopyablePersistentTraits@VFunction@v8@@@2@@Nan@@A@@YAXXZ 10001300 f   odbc_statement.obj
 0001:00000320       ??__E?constructor@ODBCResult@@2V?$Persistent@VFunction@v8@@V?$NonCopyablePersistentTraits@VFunction@v8@@@2@@Nan@@A@@YAXXZ 10001320 f   odbc_result.obj
 0001:00000340       ??__E?OPTION_FETCH_MODE@ODBCResult@@2V?$Persistent@VString@v8@@V?$NonCopyablePersistentTraits@VString@v8@@@2@@Nan@@A@@YAXXZ 10001340 f   odbc_result.obj
 0001:000012e0       ?FunctionCallbackWrapper@imp@Nan@@YAXABV?$FunctionCallbackInfo@VValue@v8@@@v8@@@Z 100022e0 f   odbc.obj
 0001:000029f0       $LN467                     100039f0     odbc.obj
 0001:00002a04       $LN463                     10003a04     odbc.obj
 0001:000034d0       __register_odbc_bindings   100044d0 f   odbc.obj
 0001:00003540       ?GetterCallbackWrapper@imp@Nan@@YAXV?$Local@VName@v8@@@v8@@ABV?$PropertyCallbackInfo@VValue@v8@@@4@@Z 10004540 f   odbc_connection.obj
 0001:000035e0       ?SetterCallbackWrapper@imp@Nan@@YAXV?$Local@VName@v8@@@v8@@V?$Local@VValue@v8@@@4@ABV?$PropertyCallbackInfo@X@4@@Z 100045e0 f   odbc_connection.obj
 0001:000069c8       $LN300                     100079c8     odbc_connection.obj
 0001:000069d8       $LN295                     100079d8     odbc_connection.obj
 0001:000072dc       $LN773                     100082dc     odbc_connection.obj
 0001:000072ec       $LN760                     100082ec     odbc_connection.obj
 0001:0000968c       $LN24                      1000a68c     odbc_statement.obj
 0001:0000969c       $LN21                      1000a69c     odbc_statement.obj
 0001:0000b4bc       $LN230                     1000c4bc     odbc_statement.obj
 0001:0000b4cc       $LN224                     1000c4cc     odbc_statement.obj
 0001:0000b7b8       $LN239                     1000c7b8     odbc_statement.obj
 0001:0000b7c8       $LN234                     1000c7c8     odbc_statement.obj
 0001:0000e5bc       $LN140                     1000f5bc     strptime.obj
 0001:0000e61c       $LN130                     1000f61c     strptime.obj
 0001:0000e680       _conv_num                  1000f680 f   strptime.obj
 0001:0000e710       _strncasecmp               1000f710 f   strptime.obj
 0001:0000e780       _load_exe_hook@8           1000f780 f   win_delay_load_hook.obj
 0001:0000ece5       ?find_pe_section@@YAPAU_IMAGE_SECTION_HEADER@@QAEI@Z 1000fce5 f   LIBCMT:utility.obj
 0001:0000f021       ?dllmain_crt_dispatch@@YGHQAUHINSTANCE__@@KQAX@Z 10010021 f   LIBCMT:dll_dllmain.obj
 0001:0000f074       ?dllmain_crt_process_attach@@YAHQAUHINSTANCE__@@QAX@Z 10010074 f   LIBCMT:dll_dllmain.obj
 0001:0000f186       ?dllmain_crt_process_detach@@YAH_N@Z 10010186 f   LIBCMT:dll_dllmain.obj
 0001:0000f203       ?dllmain_dispatch@@YAHQAUHINSTANCE__@@KQAX@Z 10010203 f   LIBCMT:dll_dllmain.obj
 0001:0000f30c       ?dllmain_raw@@YGHQAUHINSTANCE__@@KQAX@Z 1001030c f   LIBCMT:dll_dllmain.obj
 0001:0000f880       $$000000                   10010880     LIBCMT:_sehprolg4_.obj
 0001:0000faf0       _ValidateLocalCookies      10010af0 f   libvcruntime:_chandler4_.obj
 0001:0000fc8a       ?__telemetry_getfilename@@YAXPAUHINSTANCE__@@PA_WK@Z 10010c8a f   libvcruntime:telemetry.obj
 0001:0000ff10       $$000000                   10010f10     libvcruntime:memset.obj
 0001:0001024a       ?try_get_function@@YAPAXW4function_id@?A0x1821e63c@@QBDQBW4module_id@2@2@Z 1001124a f   libvcruntime:winapi_downlevel.obj
 0001:000102ea       ?try_get_module@@YAPAUHINSTANCE__@@W4module_id@?A0x1821e63c@@@Z 100112ea f   libvcruntime:winapi_downlevel.obj
 0001:00010600       $$000000                   10011600     libvcruntime:_exsup4_.obj
 0001:00010690       __unwind_handler4          10011690 f   libvcruntime:_exsup4_.obj
 0001:0001075e       __TlgDefineProvider_annotation__Tlg_Microsoft_CRTProviderProv 1001175e f   libvcruntime:telemetry.obj
 0001:00010760       $$000000                   10011760     libvcruntime:_exsup_.obj
 0001:00010780       __unwind_handler           10011780 f   libvcruntime:_exsup_.obj
 0001:00010958       ??$common_mktime@_J@@YA_JQAUtm@@_N@Z 10011958 f   libucrt:mktime.obj
 0001:00010db2       ??$common_assert_to_message_box@_W@@YAXQB_W0IQAX@Z 10011db2 f   libucrt:assert.obj
 0001:00010e4e       ??$common_assert_to_message_box_build_string@_W@@YAXQA_WIQB_W1IQAX@Z 10011e4e f   libucrt:assert.obj
 0001:00011393       ??$common_assert_to_stderr@_W@@YAXQB_W0I@Z 10012393 f   libucrt:assert.obj
 0001:0001143e       ?common_assert_to_stderr_direct@@YAXQB_W0I@Z 1001243e f   libucrt:assert.obj
 0001:000114ef       ?get_assert_format@@YAPB_W_W@Z 100124ef f   libucrt:assert.obj
 0001:000115d5       ??$common_tox_l@$1?internal_isupper_l@@YA_NHQAU__crt_locale_pointers@@@Z$1?internal_map_lower@@YAHH0@Z@@YAHHKQAU__crt_locale_pointers@@@Z 100125d5 f   libucrt:tolower_toupper.obj
 0001:000117a2       ?internal_isupper_l@@YA_NHQAU__crt_locale_pointers@@@Z 100127a2 f   libucrt:tolower_toupper.obj
 0001:00011c8a       ?atexit_exception_filter@@YAHK@Z 10012c8a f   libucrt:exit.obj
 0001:00011c9d       ?common_exit@@YAXHW4_crt_exit_cleanup_mode@@W4_crt_exit_return_mode@@@Z 10012c9d f   libucrt:exit.obj
 0001:00011db6       ?exit_or_terminate_process@@YAXI@Z 10012db6 f   libucrt:exit.obj
 0001:00011df7       ?is_managed_app@@YA_NXZ    10012df7 f   libucrt:exit.obj
 0001:00011e3b       ?try_cor_exit_process@@YAXI@Z 10012e3b f   libucrt:exit.obj
 0001:00011edf       ??$common_get_or_create_environment_nolock@D@@YAPAPADXZ 10012edf f   libucrt:environment_initialization.obj
 0001:00011f0e       ??$common_initialize_environment_nolock@D@@YAHXZ 10012f0e f   libucrt:environment_initialization.obj
 0001:00011f67       ??$create_environment@D@@YAQAPADQAD@Z 10012f67 f   libucrt:environment_initialization.obj
 0001:00012038       ??$free_environment@D@@YAXQAPAD@Z 10013038 f   libucrt:environment_initialization.obj
 0001:00012038       ??$free_environment@_W@@YAXQAPA_W@Z 10013038 f   libucrt:environment_initialization.obj
 0001:00012067       ??$initialize_environment_by_cloning_nolock@D@@YAHXZ 10013067 f   libucrt:environment_initialization.obj
 0001:00012126       ??$uninitialize_environment_internal@D@@YAXAAPAPAD@Z 10013126 f   libucrt:environment_initialization.obj
 0001:00012141       ??$uninitialize_environment_internal@_W@@YAXAAPAPA_W@Z 10013141 f   libucrt:environment_initialization.obj
 0001:000122ae       ??R<lambda_275893d493268fdec8709772e3fcec0e>@@QBEHXZ 100132ae f   libucrt:onexit.obj
 0001:000123ce       ??R<lambda_4e60a939b0d047cfe11ddc22648dfba9>@@QBEHXZ 100133ce f   libucrt:onexit.obj
 0001:000125a3       _initialize_global_variables 100135a3 f   libucrt:initialization.obj
 0001:000125b5       _initialize_c              100135b5 f   libucrt:initialization.obj
 0001:000125cf       _uninitialize_environment  100135cf f   libucrt:initialization.obj
 0001:000125d7       _initialize_pointers       100135d7 f   libucrt:initialization.obj
 0001:00012614       _uninitialize_vcruntime    10013614 f   libucrt:initialization.obj
 0001:0001261d       _uninitialize_allocated_memory 1001361d f   libucrt:initialization.obj
 0001:000129b5       ??$common_vsprintf@Vstandard_base@__crt_stdio_output@@_W@@YAH_KQA_WIQB_WQAU__crt_locale_pointers@@QAD@Z 100139b5 f   libucrt:output.obj
 0001:00012e9f       ??R<lambda_481dd5778c961fbcd3b60b650e9b9dc4>@@QBEHXZ 10013e9f f   libucrt:output.obj
 0001:000131a1       $LN54                      100141a1     libucrt:output.obj
 0001:000132c1       $LN54                      100142c1     libucrt:output.obj
 0001:00013bc5       $LN19                      10014bc5     libucrt:output.obj
 0001:00015275       ??$common_gmtime_s@_J@@YAHQAUtm@@QB_J@Z 10016275 f   libucrt:gmtime.obj
 0001:000153c2       ?compute_year@@YAHAA_JAA_N@Z 100163c2 f   libucrt:gmtime.obj
 0001:00015471       ??$common_localtime_s@_J@@YAHQAUtm@@QB_J@Z 10016471 f   libucrt:localtime.obj
 0001:00015706       ?_isindst_nolock@@YAHQAUtm@@@Z 10016706 f   libucrt:tzset.obj
 0001:000158ed       ?cvtdate@@YAXW4transition_type@?A0xdb49773f@@W4date_type@2@HHHHHHHHH@Z 100168ed f   libucrt:tzset.obj
 0001:00015a3d       ?tzset_from_environment_nolock@@YAXPAD@Z 10016a3d f   libucrt:tzset.obj
 0001:00015c12       ?tzset_from_system_nolock@@YAXXZ 10016c12 f   libucrt:tzset.obj
 0001:00015d6d       ?tzset_nolock@@YAXXZ       10016d6d f   libucrt:tzset.obj
 0001:00015eee       ??$common_xtox@K_W@@YAHKQA_WII_N@Z 10016eee f   libucrt:xtoa.obj
 0001:00015f7c       ??$common_xtox_s@K_W@@YAHKQA_WII_N@Z 10016f7c f   libucrt:xtoa.obj
 0001:00016128       ??$common_tcsncat_s@_W@@YAHQA_WIQB_WI@Z 10017128 f   libucrt:wcsncat_s.obj
 0001:0001621c       ??$common_show_message_box@_W@@YAHQB_W0I@Z 1001721c f   libucrt:crtmbox.obj
 0001:000162f5       ??$message_box_wait_thread@_W@@YGKQAX@Z 100172f5 f   libucrt:crtmbox.obj
 0001:00016524       _common_flush_all          10017524 f   libucrt:fflush.obj
 0001:000166ce       ??R<lambda_b721fa326cdb32351d23dfa67958c160>@@QBEHXZ 100176ce f   libucrt:setvbuf.obj
 0001:00016768       ?set_buffer@@YAHV__crt_stdio_stream@@QADIH@Z 10017768 f   libucrt:setvbuf.obj
 0001:00016893       ?get_global_action_nolock@@YAPAP6AXH@ZH@Z 10017893 f   libucrt:signal.obj
 0001:000168d5       ?siglookup@@YAPAU__crt_signal_action_t@@HQAU1@@Z 100178d5 f   libucrt:signal.obj
 0001:00016c91       ?__acrt_LCMapStringA_stat@@YAHPAU__crt_locale_pointers@@PB_WKPBDHPADHHH@Z 10017c91 f   libucrt:lcmapstringa.obj
 0001:000170fd       ?construct_ptd@@YAXQAU__acrt_ptd@@QAPAU__crt_locale_data@@@Z 100180fd f   libucrt:per_thread_data.obj
 0001:00017176       ?destroy_fls@@YGXPAX@Z     10018176 f   libucrt:per_thread_data.obj
 0001:00017197       ?destroy_ptd@@YAXQAU__acrt_ptd@@@Z 10018197 f   libucrt:per_thread_data.obj
 0001:00017240       ?replace_current_thread_locale_nolock@@YAXQAU__acrt_ptd@@QAU__crt_locale_data@@@Z 10018240 f   libucrt:per_thread_data.obj
 0001:0001755d       ?try_get_CompareStringEx@@YAP6GHPB_WK0H0HPAU_nlsversioninfo@@PAXJ@ZXZ 1001855d f   libucrt:winapi_thunks.obj
 0001:00017577       ?try_get_MessageBoxA@@YAP6GHPAUHWND__@@PBD1I@ZXZ 10018577 f   libucrt:winapi_thunks.obj
 0001:00017591       ?try_get_MessageBoxW@@YAP6GHPAUHWND__@@PB_W1I@ZXZ 10018591 f   libucrt:winapi_thunks.obj
 0001:000175ab       ?try_get_function@@YAPAXW4function_id@?A0x352e5c4b@@QBDQBW4module_id@2@2@Z 100185ab f   libucrt:winapi_thunks.obj
 0001:00017647       ?try_get_module@@YAPAUHINSTANCE__@@W4module_id@?A0x352e5c4b@@@Z 10018647 f   libucrt:winapi_thunks.obj
 0001:00017cac       ??R<lambda_ad1ced32f4ac17aa236e5ef05d6b3b7c>@@QBEXXZ 10018cac f   libucrt:mbctype.obj
 0001:00017d70       ?CPtoLocaleName@@YAPB_WH@Z 10018d70 f   libucrt:mbctype.obj
 0001:00017dae       ?getSystemCP@@YAHH@Z       10018dae f   libucrt:mbctype.obj
 0001:00017e21       ?setSBCS@@YAXPAU__crt_multibyte_data@@@Z 10018e21 f   libucrt:mbctype.obj
 0001:00017e86       ?setSBUpLow@@YAXPAU__crt_multibyte_data@@@Z 10018e86 f   libucrt:mbctype.obj
 0001:0001801a       ?setmbcp_internal@@YAHH_N@Z 1001901a f   libucrt:mbctype.obj
 0001:000183cc       ?find_end_of_double_null_terminated_sequence@@YAPB_WQB_W@Z 100193cc f   libucrt:get_environment_from_os.obj
 0001:00018486       ??$common_set_variable_in_environment_nolock@D@@YAHQADH@Z 10019486 f   libucrt:setenv.obj
 0001:000186c1       ??$copy_environment@D@@YAPAPADQAPAD@Z 100196c1 f   libucrt:setenv.obj
 0001:00018772       ??$find_in_environment_nolock@D@@YAHQBDI@Z 10019772 f   libucrt:setenv.obj
 0001:00018864       ?initialize_inherited_file_handles_nolock@@YAXXZ 10019864 f   libucrt:ioinit.obj
 0001:0001891a       ?initialize_stdio_handles_nolock@@YAXXZ 1001991a f   libucrt:ioinit.obj
 0001:00018a6b       _uninitialize_global_state_isolation 10019a6b f   libucrt:initialization.obj
 0001:00018a6b       _uninitialize_c            10019a6b f   libucrt:initialization.obj
 0001:00018a6b       _initialize_global_state_isolation 10019a6b f   libucrt:initialization.obj
 0001:00018a6b       _report_memory_leaks       10019a6b f   libucrt:initialization.obj
 0001:00018a6b       _initialize_environment    10019a6b f   libucrt:initialization.obj
 0001:00019167       ?fp_format_a@@YAHQBNPADIQADIH_NIQAU__crt_locale_pointers@@@Z 1001a167 f   libucrt:cvt.obj
 0001:0001946a       ?fp_format_e@@YAHQBNQADI1IH_NIQAU__crt_locale_pointers@@@Z 1001a46a f   libucrt:cvt.obj
 0001:00019505       ?fp_format_e_internal@@YAHQADIH_NIQAU_strflt@@1QAU__crt_locale_pointers@@@Z 1001a505 f   libucrt:cvt.obj
 0001:00019650       ?fp_format_f@@YAHQBNQADI1IHQAU__crt_locale_pointers@@@Z 1001a650 f   libucrt:cvt.obj
 0001:000196dd       ?fp_format_f_internal@@YAHQADIHQAU_strflt@@_NQAU__crt_locale_pointers@@@Z 1001a6dd f   libucrt:cvt.obj
 0001:000197b4       ?fp_format_g@@YAHQBNQADI1IH_NIQAU__crt_locale_pointers@@@Z 1001a7b4 f   libucrt:cvt.obj
 0001:0001987c       ?fp_format_nan_or_infinity@@YAHW4__acrt_fp_class@@_NPADI1@Z 1001a87c f   libucrt:cvt.obj
 0001:00019974       ?shift_bytes@@YAXQADI0H@Z  1001a974 f   libucrt:cvt.obj
 0001:00019af2       ?fputwc_binary_nolock@@YAG_WV__crt_stdio_stream@@@Z 1001aaf2 f   libucrt:fputwc.obj
 0001:00019d0d       ??$common_getenv_nolock@D@@YAPADQBD@Z 1001ad0d f   libucrt:getenv.obj
 0001:00019d7d       ??$common_getenv_s@D@@YAHQAIQADIQBD@Z 1001ad7d f   libucrt:getenv.obj
 0001:00019dd2       ??$common_getenv_s_nolock@D@@YAHQAIQADIQBD@Z 1001add2 f   libucrt:getenv.obj
 0001:00019e85       ??$common_tcsncpy_s@D@@YAHQADIQBDI@Z 1001ae85 f   libucrt:strncpy_s.obj
 0001:0001a175       ?write_double_translated_ansi_nolock@@YA?AUwrite_result@?A0x47fa6670@@HQBDI@Z 1001b175 f   libucrt:write.obj
 0001:0001a328       ?write_double_translated_unicode_nolock@@YA?AUwrite_result@?A0x47fa6670@@QBDI@Z 1001b328 f   libucrt:write.obj
 0001:0001a395       ?write_requires_double_translation_nolock@@YA_NH@Z 1001b395 f   libucrt:write.obj
 0001:0001a40b       ?write_text_ansi_nolock@@YA?AUwrite_result@?A0x47fa6670@@HQBDI@Z 1001b40b f   libucrt:write.obj
 0001:0001a4ea       ?write_text_utf16le_nolock@@YA?AUwrite_result@?A0x47fa6670@@HQBDI@Z 1001b4ea f   libucrt:write.obj
 0001:0001a5d8       ?write_text_utf8_nolock@@YA?AUwrite_result@?A0x47fa6670@@HQBDI@Z 1001b5d8 f   libucrt:write.obj
 0001:0001b02d       ?free_crt_array_internal@@YAXQAPBXI@Z 1001c02d f   libucrt:inittime.obj
 0001:0001b14d       ?GetTableIndexFromLocaleName@@YAHPB_W@Z 1001c14d f   libucrt:lcidtoname_downlevel.obj
 0001:0001b235       ?initialize_multibyte@@YAHXZ 1001c235 f   libucrt:multibyte_initializer.obj
 0001:0001cfea       _memcpy_s                  1001dfea f   libucrt:mbctype.obj
 0001:0001cfea       _memcpy_s                  1001dfea f   libucrt:assert.obj
 0001:0001cfea       _memcpy_s                  1001dfea f   libucrt:cfout.obj
 0001:0001d06b       ??$common_flush_and_write_nolock@D@@YAHHV__crt_stdio_stream@@@Z 1001e06b f   libucrt:_flsbuf.obj
 0001:0001d17c       ??$common_flush_and_write_nolock@_W@@YAHHV__crt_stdio_stream@@@Z 1001e17c f   libucrt:_flsbuf.obj
 0001:0001d291       ??$write_buffer_nolock@D@@YA_NDV__crt_stdio_stream@@@Z 1001e291 f   libucrt:_flsbuf.obj
 0001:0001d35d       ??$write_buffer_nolock@_W@@YA_N_WV__crt_stdio_stream@@@Z 1001e35d f   libucrt:_flsbuf.obj
 0001:0001d53d       ??$common_lseek@_J@@YA_JH_JH@Z 1001e53d f   libucrt:lseek.obj
 0001:0001d642       ??$common_lseek_nolock@_J@@YA_JH_JH@Z 1001e642 f   libucrt:lseek.obj
 0001:0001d85e       ?InternalCompareStringA@@YAHPAU__crt_locale_pointers@@PB_WKPBDH2HH@Z 1001e85e f   libucrt:comparestringa.obj
 0001:0001dc10       $$000000                   1001ec10     libucrt:log10.obj
 0001:0001dd60       $$000000                   1001ed60     libucrt:ceil_pentium4.obj
 0001:0001e110       $$000000                   1001f110     libucrt:_strnicm.obj
 0001:0001e171       ___get_abstract_control_sse2 1001f171 f   libucrt:_fenvutils.obj
 0001:0001e1ee       ___get_abstract_control_x87 1001f1ee f   libucrt:_fenvutils.obj
 0001:0001e261       ___get_machine_control     1001f261 f   libucrt:_fenvutils.obj
 0001:0001e2d2       ___get_machine_control_sse2 1001f2d2 f   libucrt:_fenvutils.obj
 0001:0001e352       ___get_machine_status_sse2 1001f352 f   libucrt:_fenvutils.obj
 0001:0001e3b3       ___get_machine_status_x87  1001f3b3 f   libucrt:_fenvutils.obj
 0001:0001e6f0       $$000000                   1001f6f0     libucrt:log10_pentium4.obj
 0001:0001e980       $$000000                   1001f980     libucrt:87tran.obj
 0001:0001eb80       $$000000                   1001fb80     libucrt:87disp.obj
 0001:0001ed80       $$000000                   1001fd80     libucrt:common.obj
 0001:0001ef10       $$000000                   1001ff10     libucrt:genexcep.obj
 0001:00020540       $$000000                   10021540     LIBCMT:ulldvrm.obj
 0001:000205e0       $$000000                   100215e0     LIBCMT:lldiv.obj
 0001:00020690       $$000000                   10021690     LIBCMT:llmul.obj
 0001:000206d0       $$000000                   100216d0     LIBCMT:llrem.obj
 0001:00020790       $$000000                   10021790     LIBCMT:_sehprolg4gs_.obj
 0001:000207f0       $$000000                   100217f0     LIBCMT:alloca16.obj
 0001:00020820       $$000000                   10021820     LIBCMT:lldvrm.obj
 0001:00020900       $$000000                   10021900     LIBCMT:ullshr.obj
 0001:00020920       $$000000                   10021920     LIBCMT:chkstk.obj
 0001:00020950       $$000000                   10021950     LIBCMT:llshl.obj
 0001:00020970       $$000000                   10021970     LIBCMT:_ftol2_.obj
 0001:00020a30       $$000000                   10021a30     libvcruntime:memcpy.obj
 0001:00020c94       TrailingUpVec              10021c94     libvcruntime:memcpy.obj
 0001:00020d40       TrailingDownVec            10021d40     libvcruntime:memcpy.obj
 0001:00020fb0       $$000000                   10021fb0     libvcruntime:strchr.obj
 0001:000210e0       $$000000                   100220e0     libvcruntime:memmove.obj
 0001:00021344       TrailingUpVec              10022344     libvcruntime:memmove.obj
 0001:000213f0       TrailingDownVec            100223f0     libvcruntime:memmove.obj
 0001:00021660       $$000000                   10022660     libvcruntime:strrchr.obj
 0001:000217a0       $$000000                   100227a0     LIBCMT:_ftol3_.obj
 0001:00021b20       ??__F?constructor@ODBC@@2V?$Persistent@VFunction@v8@@V?$NonCopyablePersistentTraits@VFunction@v8@@@2@@Nan@@A@@YAXXZ 10022b20 f   odbc.obj
 0001:00021b30       ??__F?constructor@ODBCConnection@@2V?$Persistent@VFunction@v8@@V?$NonCopyablePersistentTraits@VFunction@v8@@@2@@Nan@@A@@YAXXZ 10022b30 f   odbc_connection.obj
 0001:00021b40       ??__F?OPTION_SQL@ODBCConnection@@2V?$Persistent@VString@v8@@V?$NonCopyablePersistentTraits@VString@v8@@@2@@Nan@@A@@YAXXZ 10022b40 f   odbc_connection.obj
 0001:00021b50       ??__F?OPTION_PARAMS@ODBCConnection@@2V?$Persistent@VString@v8@@V?$NonCopyablePersistentTraits@VString@v8@@@2@@Nan@@A@@YAXXZ 10022b50 f   odbc_connection.obj
 0001:00021b60       ??__F?OPTION_NORESULTS@ODBCConnection@@2V?$Persistent@VString@v8@@V?$NonCopyablePersistentTraits@VString@v8@@@2@@Nan@@A@@YAXXZ 10022b60 f   odbc_connection.obj
 0001:00021b70       ??__F?constructor@ODBCStatement@@2V?$Persistent@VFunction@v8@@V?$NonCopyablePersistentTraits@VFunction@v8@@@2@@Nan@@A@@YAXXZ 10022b70 f   odbc_statement.obj
 0001:00021b80       ??__F?constructor@ODBCResult@@2V?$Persistent@VFunction@v8@@V?$NonCopyablePersistentTraits@VFunction@v8@@@2@@Nan@@A@@YAXXZ 10022b80 f   odbc_result.obj
 0001:00021b90       ??__F?OPTION_FETCH_MODE@ODBCResult@@2V?$Persistent@VString@v8@@V?$NonCopyablePersistentTraits@VString@v8@@@2@@Nan@@A@@YAXXZ 10022b90 f   odbc_result.obj
 0002:00000190       ??constructor$initializer$@ODBC@@2P6AXXZA@@3P6AXXZA 10023190     odbc.obj
 0002:00000194       ??OPTION_SQL$initializer$@ODBCConnection@@2P6AXXZA@@3P6AXXZA 10023194     odbc_connection.obj
 0002:00000198       ??OPTION_PARAMS$initializer$@ODBCConnection@@2P6AXXZA@@3P6AXXZA 10023198     odbc_connection.obj
 0002:0000019c       ??OPTION_NORESULTS$initializer$@ODBCConnection@@2P6AXXZA@@3P6AXXZA 1002319c     odbc_connection.obj
 0002:000001a0       ??constructor$initializer$@ODBCConnection@@2P6AXXZA@@3P6AXXZA 100231a0     odbc_connection.obj
 0002:000001a4       ??constructor$initializer$@ODBCStatement@@2P6AXXZA@@3P6AXXZA 100231a4     odbc_statement.obj
 0002:000001a8       ??OPTION_FETCH_MODE$initializer$@ODBCResult@@2P6AXXZA@@3P6AXXZA 100231a8     odbc_result.obj
 0002:000001ac       ??constructor$initializer$@ODBCResult@@2P6AXXZA@@3P6AXXZA 100231ac     odbc_result.obj
 0002:00000200       _GS_ExceptionPointers      10023200     LIBCMT:gs_report.obj
 0002:00000298       ?ExceptionTemplate@?1??_CxxThrowException@@9@8@4UEHExceptionRecord@@B 10023298     libvcruntime:throw.obj
 0002:000002b8       ?module_names@?A0x1821e63c@@3QBQB_WB 100232b8     libvcruntime:winapi_downlevel.obj
 0002:00000368       ?candidate_modules@?1??try_get_EventRegister@@YAP6GKPBU_GUID@@P6GX0KE_K1PAU_EVENT_FILTER_DESCRIPTOR@@PAX@Z3PA_K@ZXZ@4QBW4module_id@?A0x1821e63c@@B 10023368     libvcruntime:winapi_downlevel.obj
 0002:0000037c       ?candidate_modules@?1??try_get_EventSetInformation@@YAP6GK_KW4_EVENT_INFO_CLASS@@PAXK@ZXZ@4QBW4module_id@?A0x1821e63c@@B 1002337c     libvcruntime:winapi_downlevel.obj
 0002:00000394       ?candidate_modules@?1??try_get_EventUnregister@@YAP6GK_K@ZXZ@4QBW4module_id@?A0x1821e63c@@B 10023394     libvcruntime:winapi_downlevel.obj
 0002:000003a8       ?candidate_modules@?1??try_get_EventWriteTransfer@@YAP6GK_KPBU_EVENT_DESCRIPTOR@@PBU_GUID@@2KPAU_EVENT_DATA_DESCRIPTOR@@@ZXZ@4QBW4module_id@?A0x1821e63c@@B 100233a8     libvcruntime:winapi_downlevel.obj
 0002:000003c0       ?candidate_modules@?1??try_get_FlsAlloc@@YAP6GKP6GXPAX@Z@ZXZ@4QBW4module_id@?A0x1821e63c@@B 100233c0     libvcruntime:winapi_downlevel.obj
 0002:000003d4       ?candidate_modules@?1??try_get_FlsFree@@YAP6GHK@ZXZ@4QBW4module_id@?A0x1821e63c@@B 100233d4     libvcruntime:winapi_downlevel.obj
 0002:000003e4       ?candidate_modules@?1??try_get_FlsGetValue@@YAP6GPAXK@ZXZ@4QBW4module_id@?A0x1821e63c@@B 100233e4     libvcruntime:winapi_downlevel.obj
 0002:000003f8       ?candidate_modules@?1??try_get_FlsSetValue@@YAP6GHKPAX@ZXZ@4QBW4module_id@?A0x1821e63c@@B 100233f8     libvcruntime:winapi_downlevel.obj
 0002:0000040c       ?candidate_modules@?1??try_get_InitializeCriticalSectionEx@@YAP6GHPAU_RTL_CRITICAL_SECTION@@KK@ZXZ@4QBW4module_id@?A0x1821e63c@@B 1002340c     libvcruntime:winapi_downlevel.obj
 0002:00000430       ?tokenTable@@3QBQBDB       10023430     libvcruntime:undname.obj
 0002:00000468       ?nameTable@@3QBQBDB        10023468     libvcruntime:undname.obj
 0002:000005ac       ?rttiTable@@3QBQBDB        100235ac     libvcruntime:undname.obj
 0002:00000f10       ___acrt_initializers       10023f10     libucrt:initialization.obj
 0002:00001000       _errtable                  10024000     libucrt:errno.obj
 0002:00001da8       _module_names              10024da8     libucrt:winapi_thunks.obj
 0002:00002248       ?candidate_modules@?1??try_get_CompareStringEx@@YAP6GHPB_WK0H0HPAU_nlsversioninfo@@PAXJ@ZXZ@4QBW4module_id@?A0x352e5c4b@@B 10025248     libucrt:winapi_thunks.obj
 0002:00002260       ?candidate_modules@?1??try_get_FlsAlloc@@YAP6GKP6GXPAX@Z@ZXZ@4QBW4module_id@?A0x352e5c4b@@B 10025260     libucrt:winapi_thunks.obj
 0002:00002268       ?candidate_modules@?1??try_get_FlsFree@@YAP6GHK@ZXZ@4QBW4module_id@?A0x352e5c4b@@B 10025268     libucrt:winapi_thunks.obj
 0002:00002270       ?candidate_modules@?1??try_get_FlsGetValue@@YAP6GPAXK@ZXZ@4QBW4module_id@?A0x352e5c4b@@B 10025270     libucrt:winapi_thunks.obj
 0002:00002278       ?candidate_modules@?1??try_get_FlsSetValue@@YAP6GHKPAX@ZXZ@4QBW4module_id@?A0x352e5c4b@@B 10025278     libucrt:winapi_thunks.obj
 0002:00002280       ?candidate_modules@?1??try_get_GetActiveWindow@@YAP6GPAUHWND__@@XZXZ@4QBW4module_id@?A0x352e5c4b@@B 10025280     libucrt:winapi_thunks.obj
 0002:00002298       ?candidate_modules@?1??try_get_GetCurrentPackageId@@YAP6GJPAIPAE@ZXZ@4QBW4module_id@?A0x352e5c4b@@B 10025298     libucrt:winapi_thunks.obj
 0002:000022b4       ?candidate_modules@?1??try_get_GetLastActivePopup@@YAP6GPAUHWND__@@PAU2@@ZXZ@4QBW4module_id@?A0x352e5c4b@@B 100252b4     libucrt:winapi_thunks.obj
 0002:000022d0       ?candidate_modules@?1??try_get_GetProcessWindowStation@@YAP6GPAUHWINSTA__@@XZXZ@4QBW4module_id@?A0x352e5c4b@@B 100252d0     libucrt:winapi_thunks.obj
 0002:000022f0       ?candidate_modules@?1??try_get_GetUserObjectInformationW@@YAP6GHPAXH0KPAK@ZXZ@4QBW4module_id@?A0x352e5c4b@@B 100252f0     libucrt:winapi_thunks.obj
 0002:00002314       ?candidate_modules@?1??try_get_InitializeCriticalSectionEx@@YAP6GHPAU_RTL_CRITICAL_SECTION@@KK@ZXZ@4QBW4module_id@?A0x352e5c4b@@B 10025314     libucrt:winapi_thunks.obj
 0002:0000231c       ?candidate_modules@?1??try_get_LCMapStringEx@@YAP6GHPB_WK0HPA_WHPAU_nlsversioninfo@@PAXJ@ZXZ@4QBW4module_id@?A0x352e5c4b@@B 1002531c     libucrt:winapi_thunks.obj
 0002:00002334       ?candidate_modules@?1??try_get_LocaleNameToLCID@@YAP6GKPB_WK@ZXZ@4QBW4module_id@?A0x352e5c4b@@B 10025334     libucrt:winapi_thunks.obj
 0002:00002350       ?candidate_modules@?1??try_get_MessageBoxA@@YAP6GHPAUHWND__@@PBD1I@ZXZ@4QBW4module_id@?A0x352e5c4b@@B 10025350     libucrt:winapi_thunks.obj
 0002:00002364       ?candidate_modules@?1??try_get_MessageBoxW@@YAP6GHPAUHWND__@@PB_W1I@ZXZ@4QBW4module_id@?A0x352e5c4b@@B 10025364     libucrt:winapi_thunks.obj
 0002:00002378       __mb_locale_names          10025378     libucrt:mbctype.obj
 0002:00002408       _LcidToLocaleNameTable     10025408     libucrt:lcidtoname_downlevel.obj
 0002:00003528       _LocaleNameToIndexTable    10026528     libucrt:lcidtoname_downlevel.obj
 0002:00004e60       LOG_name                   10027e60     libucrt:log10.obj
 0002:00004e70       _One                       10027e70     libucrt:ceil_pentium4.obj
 0002:00004e80       _Bns                       10027e80     libucrt:ceil_pentium4.obj
 0002:00004e90       _Zero                      10027e90     libucrt:ceil_pentium4.obj
 0002:00004ea0       _S                         10027ea0     libucrt:ceil_pentium4.obj
 0002:00004eb0       _NegZero                   10027eb0     libucrt:ceil_pentium4.obj
 0002:00004ed0       emask                      10027ed0     libucrt:log10_pentium4.obj
 0002:00004ee0       CC                         10027ee0     libucrt:log10_pentium4.obj
 0002:00004ef0       Magic                      10027ef0     libucrt:log10_pentium4.obj
 0002:00004f00       hi_mask                    10027f00     libucrt:log10_pentium4.obj
 0002:00004f10       LOG10_2                    10027f10     libucrt:log10_pentium4.obj
 0002:00004f20       place_L                    10027f20     libucrt:log10_pentium4.obj
 0002:00004f40       One                        10027f40     libucrt:log10_pentium4.obj
 0002:00004f50       Zero                       10027f50     libucrt:log10_pentium4.obj
 0002:00004f60       Two52                      10027f60     libucrt:log10_pentium4.obj
 0002:00004f70       Infs                       10027f70     libucrt:log10_pentium4.obj
 0002:00004f80       NaN                        10027f80     libucrt:log10_pentium4.obj
 0002:00004f90       coeff                      10027f90     libucrt:log10_pentium4.obj
 0002:00004fee       _log2max                   10027fee     libucrt:87tran.obj
 0002:00004ff8       _smallarg                  10027ff8     libucrt:87tran.obj
 0002:00005002       _half                      10028002     libucrt:87tran.obj
 0002:0000504e       One                        1002804e     libucrt:87disp.obj
 0002:00005056       Three                      10028056     libucrt:87disp.obj
 0002:0000505e       XAMtoTagTab                1002805e     libucrt:87disp.obj
 0002:00005070       One                        10028070     libucrt:common.obj
 0002:00005084       DblMax                     10028084     libucrt:common.obj
 0002:0000508c       DblMin                     1002808c     libucrt:common.obj
 0002:00005094       IeeeAdjO                   10028094     libucrt:common.obj
 0002:0000509c       IeeeAdjU                   1002809c     libucrt:common.obj
 0002:000050a4       _infinity                  100280a4     libucrt:common.obj
 0002:000050ac       _zero                      100280ac     libucrt:common.obj
 0002:000050e0       _over                      100280e0     libucrt:fpctrl.obj
 0002:000050ec       _under                     100280ec     libucrt:fpctrl.obj
 0002:000059b8       ?_names@?1??_get_fname@@9@9 100289b8     libucrt:fpexcept.obj
 0002:00006a30       _mon                       10029a30     strptime.obj
 0002:00006a60       _abday                     10029a60     strptime.obj
 0002:00006a80       _abmon                     10029a80     strptime.obj
 0002:00006ab0       _day                       10029ab0     strptime.obj
 0002:00006b30       _Int32ToUInt32             10029b30     LIBCMT:_ftol3_.obj
 0002:00006b38       _DP2to32                   10029b38     LIBCMT:_ftol3_.obj
 0002:00006b40       _MantissaMask              10029b40     LIBCMT:_ftol3_.obj
 0002:00006b48       _IntegerBit                10029b48     LIBCMT:_ftol3_.obj
 0002:00006b50       _SignBit64                 10029b50     LIBCMT:_ftol3_.obj
 0002:00006b58       _MinFP64                   10029b58     LIBCMT:_ftol3_.obj
 0002:00006b60       _MinInt64                  10029b60     LIBCMT:_ftol3_.obj
 0002:00006b68       _MaxInt64                  10029b68     LIBCMT:_ftol3_.obj
 0002:00006b70       _MaxUInt64                 10029b70     LIBCMT:_ftol3_.obj
 0002:00006b78       _MaxFP32                   10029b78     LIBCMT:_ftol3_.obj
 0002:00006b80       _MinFP32                   10029b80     LIBCMT:_ftol3_.obj
 0002:00006b88       _MinSubInexact             10029b88     LIBCMT:_ftol3_.obj
 0002:00006b90       _FpExcptTable              10029b90     LIBCMT:_ftol3_.obj
 0002:00006ba0       _i1075                     10029ba0     LIBCMT:_ftol3_.obj
 0002:00006ba4       _i1087                     10029ba4     LIBCMT:_ftol3_.obj
 0002:00006ba8       _x0800                     10029ba8     LIBCMT:_ftol3_.obj
 0002:00006bac       _x17FF                     10029bac     LIBCMT:_ftol3_.obj
 0002:00006bb0       _CWMask                    10029bb0     LIBCMT:_ftol3_.obj
 0002:00006d60       ?_TlgEvent@?3??__telemetry_main_invoke_trigger@@9@4U<unnamed-type-_TlgEvent>@?3??1@YAXQAUHINSTANCE__@@@Z@B 10029d60     libvcruntime:telemetry.obj
 0002:00006d9c       ?_TlgEvent@?3??__telemetry_main_return_trigger@@9@4U<unnamed-type-_TlgEvent>@?3??1@YAXQAUHINSTANCE__@@@Z@B 10029d9c     libvcruntime:telemetry.obj
 0002:00006dd7       ?_Tlg_Microsoft_CRTProviderProv_Meta@@3U<unnamed-type-_Tlg_Microsoft_CRTProviderProv_Meta>@@B 10029dd7     libvcruntime:telemetry.obj
 0002:00007260       __sehtable$___scrt_is_nonwritable_in_current_image 1002a260     LIBCMT:utility.obj
 0002:00007280       __sehtable$?dllmain_crt_process_attach@@YAHQAUHINSTANCE__@@QAX@Z 1002a280     LIBCMT:dll_dllmain.obj
 0002:000072a0       __sehtable$?dllmain_crt_process_detach@@YAH_N@Z 1002a2a0     LIBCMT:dll_dllmain.obj
 0002:000072c0       __sehtable$?dllmain_dispatch@@YAHQAUHINSTANCE__@@KQAX@Z 1002a2c0     LIBCMT:dll_dllmain.obj
 0002:00007370       __sehtable$__query_new_handler 1002a370     libucrt:new_handler.obj
 0002:00007390       __sehtable$?common_exit@@YAXHW4_crt_exit_cleanup_mode@@W4_crt_exit_return_mode@@@Z 1002a390     libucrt:exit.obj
 0002:000073b8       __sehtable$??$?RV<lambda_800076c951b434888f4765a74a194fcc>@@AAV<lambda_4e60a939b0d047cfe11ddc22648dfba9>@@V<lambda_6dbb1268764f43b569ce7b67e331d33a>@@@?$__crt_seh_guarded_call@H@@QAEH$$QAV<lambda_800076c951b434888f4765a74a194fcc>@@AAV<lambda_4e60a939b0d047cfe11ddc22648dfba9>@@$$QAV<lambda_6dbb1268764f43b569ce7b67e331d33a>@@@Z 1002a3b8     libucrt:onexit.obj
 0002:000073d8       __sehtable$??$?RV<lambda_995298e7d72eb4c2aab26c0585b3abe5>@@AAV<lambda_275893d493268fdec8709772e3fcec0e>@@V<lambda_293819299cbf9a7022e18b56a874bb5c>@@@?$__crt_seh_guarded_call@H@@QAEH$$QAV<lambda_995298e7d72eb4c2aab26c0585b3abe5>@@AAV<lambda_275893d493268fdec8709772e3fcec0e>@@$$QAV<lambda_293819299cbf9a7022e18b56a874bb5c>@@@Z 1002a3d8     libucrt:onexit.obj
 0002:000073f8       __sehtable$_terminate      1002a3f8     libucrt:terminate.obj
 0002:00007418       __sehtable$??$?RV<lambda_ab9923ffb5d694ec0d78876dd103e44f>@@AAV<lambda_481dd5778c961fbcd3b60b650e9b9dc4>@@V<lambda_7923d86c9e3f319b415918ec4b39749c>@@@?$__crt_seh_guarded_call@H@@QAEH$$QAV<lambda_ab9923ffb5d694ec0d78876dd103e44f>@@AAV<lambda_481dd5778c961fbcd3b60b650e9b9dc4>@@$$QAV<lambda_7923d86c9e3f319b415918ec4b39749c>@@@Z 1002a418     libucrt:output.obj
 0002:00007438       __sehtable$__isindst       1002a438     libucrt:tzset.obj
 0002:00007458       __sehtable$___tzset        1002a458     libucrt:tzset.obj
 0002:00007478       __sehtable$_fflush         1002a478     libucrt:fflush.obj
 0002:00007498       __sehtable$_common_flush_all 1002a498     libucrt:fflush.obj
 0002:000074c0       __sehtable$??$?RV<lambda_d92cfe8357b99225085016881b624cb0>@@AAV<lambda_b721fa326cdb32351d23dfa67958c160>@@V<lambda_42d75b0848218ec137fa420c8ba9fdf9>@@@?$__crt_seh_guarded_call@H@@QAEH$$QAV<lambda_d92cfe8357b99225085016881b624cb0>@@AAV<lambda_b721fa326cdb32351d23dfa67958c160>@@$$QAV<lambda_42d75b0848218ec137fa420c8ba9fdf9>@@@Z 1002a4c0     libucrt:setvbuf.obj
 0002:000074e0       __sehtable$_raise          1002a4e0     libucrt:signal.obj
 0002:00007500       __sehtable$??$?RV<lambda_a048d3beccc847880fc8490e18b82769>@@AAV<lambda_ec61778202f4f5fc7e7711acc23c3bca>@@V<lambda_f7496a158712204296dd6628a163878e>@@@?$__crt_seh_guarded_call@P6AXH@Z@@QAEP6AXH@Z$$QAV<lambda_a048d3beccc847880fc8490e18b82769>@@AAV<lambda_ec61778202f4f5fc7e7711acc23c3bca>@@$$QAV<lambda_f7496a158712204296dd6628a163878e>@@@Z 1002a500     libucrt:signal.obj
 0002:00007520       __sehtable$??$?RV<lambda_9df27f884b057bc3edfc946cb5b7cf47>@@AAV<lambda_e69574bed617af4e071282c136b37893>@@V<lambda_cc0d902bcbbeb830f749456577db4721>@@@?$__crt_seh_guarded_call@X@@QAEX$$QAV<lambda_9df27f884b057bc3edfc946cb5b7cf47>@@AAV<lambda_e69574bed617af4e071282c136b37893>@@$$QAV<lambda_cc0d902bcbbeb830f749456577db4721>@@@Z 1002a520     libucrt:per_thread_data.obj
 0002:00007540       __sehtable$??$?RV<lambda_3518db117f0e7cdb002338c5d3c47b6c>@@AAV<lambda_b2ea41f6bbb362cd97d94c6828d90b61>@@V<lambda_abdedf541bb04549bc734292b4a045d4>@@@?$__crt_seh_guarded_call@X@@QAEX$$QAV<lambda_3518db117f0e7cdb002338c5d3c47b6c>@@AAV<lambda_b2ea41f6bbb362cd97d94c6828d90b61>@@$$QAV<lambda_abdedf541bb04549bc734292b4a045d4>@@@Z 1002a540     libucrt:per_thread_data.obj
 0002:00007560       __sehtable$??$?RV<lambda_51b6e8b1eb166f2a3faf91f424b38130>@@AAV<lambda_6250bd4b2a391816dd638c3bf72b0bcb>@@V<lambda_0b5a4a3e68152e1d9b943535f5f47bed>@@@?$__crt_seh_guarded_call@X@@QAEX$$QAV<lambda_51b6e8b1eb166f2a3faf91f424b38130>@@AAV<lambda_6250bd4b2a391816dd638c3bf72b0bcb>@@$$QAV<lambda_0b5a4a3e68152e1d9b943535f5f47bed>@@@Z 1002a560     libucrt:per_thread_data.obj
 0002:00007580       __sehtable$??$?RV<lambda_5b71d36f03204c0beab531769a5b5694>@@AAV<lambda_be2b3da3f62db62e9dad5dc70221a656>@@V<lambda_8f9ce462984622f9bf76b59e2aaaf805>@@@?$__crt_seh_guarded_call@X@@QAEX$$QAV<lambda_5b71d36f03204c0beab531769a5b5694>@@AAV<lambda_be2b3da3f62db62e9dad5dc70221a656>@@$$QAV<lambda_8f9ce462984622f9bf76b59e2aaaf805>@@@Z 1002a580     libucrt:per_thread_data.obj
 0002:000075a0       __sehtable$___acrt_uninitialize_locale 1002a5a0     libucrt:wsetlocale.obj
 0002:000075c0       __sehtable$___acrt_update_thread_multibyte_data 1002a5c0     libucrt:mbctype.obj
 0002:000075e0       __sehtable$??$?RV<lambda_978dc153c237d78434369da87b74ff60>@@AAV<lambda_ad1ced32f4ac17aa236e5ef05d6b3b7c>@@V<lambda_4a8533e2866a575feecb8298ce776b0d>@@@?$__crt_seh_guarded_call@X@@QAEX$$QAV<lambda_978dc153c237d78434369da87b74ff60>@@AAV<lambda_ad1ced32f4ac17aa236e5ef05d6b3b7c>@@$$QAV<lambda_4a8533e2866a575feecb8298ce776b0d>@@@Z 1002a5e0     libucrt:mbctype.obj
 0002:00007600       __sehtable$___acrt_initialize_lowio 1002a600     libucrt:ioinit.obj
 0002:00007620       __sehtable$??$common_getenv_s@D@@YAHQAIQADIQBD@Z 1002a620     libucrt:getenv.obj
 0002:00007640       __sehtable$__fcloseall     1002a640     libucrt:closeall.obj
 0002:00007660       __sehtable$??$?RV<lambda_61cee617f5178ae960314fd4d05640a0>@@AAV<lambda_6978c1fb23f02e42e1d9e99668cc68aa>@@V<lambda_9cd88cf8ad10232537feb2133f08c833>@@@?$__crt_seh_guarded_call@H@@QAEH$$QAV<lambda_61cee617f5178ae960314fd4d05640a0>@@AAV<lambda_6978c1fb23f02e42e1d9e99668cc68aa>@@$$QAV<lambda_9cd88cf8ad10232537feb2133f08c833>@@@Z 1002a660     libucrt:commit.obj
 0002:00007680       __sehtable$__write         1002a680     libucrt:write.obj
 0002:000076a0       __sehtable$___acrt_update_thread_locale_data 1002a6a0     libucrt:locale_refcounting.obj
 0002:000076c0       __sehtable$___acrt_lowio_ensure_fh_exists 1002a6c0     libucrt:osfinfo.obj
 0002:000076e0       __sehtable$_fclose         1002a6e0     libucrt:fclose.obj
 0002:00007700       __sehtable$??$common_lseek@_J@@YA_JH_JH@Z 1002a700     libucrt:lseek.obj
 0002:00007720       __sehtable$??$?RV<lambda_123407a5e2ac06da108355a851863b7a>@@AAV<lambda_2fe9b910cf3cbf4a0ab98a02ba45b3ec>@@V<lambda_ae55bdf541ad94d75914d381c370e64d>@@@?$__crt_seh_guarded_call@H@@QAEH$$QAV<lambda_123407a5e2ac06da108355a851863b7a>@@AAV<lambda_2fe9b910cf3cbf4a0ab98a02ba45b3ec>@@$$QAV<lambda_ae55bdf541ad94d75914d381c370e64d>@@@Z 1002a720     libucrt:close.obj
 0002:00007740       __sehtable$__IsNonwritableInCurrentImage 1002a740     LIBCMT:pesect.obj
 0002:000098a0       .edata                     1002c8a0     odbc_bindings.exp
 0002:000098c8       rgpv                       1002c8c8     odbc_bindings.exp
 0002:00009da8       rgszName                   1002cda8     odbc_bindings.exp
 0002:0000a288       rgwOrd                     1002d288     odbc_bindings.exp
 0002:0000a4f8       szName                     1002d4f8     odbc_bindings.exp
 0002:0000a50b       $N00001                    1002d50b     odbc_bindings.exp
 0002:0000a536       $N00002                    1002d536     odbc_bindings.exp
 0002:0000a55a       $N00003                    1002d55a     odbc_bindings.exp
 0002:0000a582       $N00004                    1002d582     odbc_bindings.exp
 0002:0000a5a5       $N00005                    1002d5a5     odbc_bindings.exp
 0002:0000a5ce       $N00006                    1002d5ce     odbc_bindings.exp
 0002:0000a5f9       $N00007                    1002d5f9     odbc_bindings.exp
 0002:0000a61e       $N00008                    1002d61e     odbc_bindings.exp
 0002:0000a651       $N00009                    1002d651     odbc_bindings.exp
 0002:0000a685       $N00010                    1002d685     odbc_bindings.exp
 0002:0000a6b5       $N00011                    1002d6b5     odbc_bindings.exp
 0002:0000a6e1       $N00012                    1002d6e1     odbc_bindings.exp
 0002:0000a707       $N00013                    1002d707     odbc_bindings.exp
 0002:0000a740       $N00014                    1002d740     odbc_bindings.exp
 0002:0000a772       $N00015                    1002d772     odbc_bindings.exp
 0002:0000a79e       $N00016                    1002d79e     odbc_bindings.exp
 0002:0000a7ce       $N00017                    1002d7ce     odbc_bindings.exp
 0002:0000a7e8       $N00018                    1002d7e8     odbc_bindings.exp
 0002:0000a80a       $N00019                    1002d80a     odbc_bindings.exp
 0002:0000a836       $N00020                    1002d836     odbc_bindings.exp
 0002:0000a85c       $N00021                    1002d85c     odbc_bindings.exp
 0002:0000a87e       $N00022                    1002d87e     odbc_bindings.exp
 0002:0000a8a2       $N00023                    1002d8a2     odbc_bindings.exp
 0002:0000a8c6       $N00024                    1002d8c6     odbc_bindings.exp
 0002:0000a8e9       $N00025                    1002d8e9     odbc_bindings.exp
 0002:0000a901       $N00026                    1002d901     odbc_bindings.exp
 0002:0000a934       $N00027                    1002d934     odbc_bindings.exp
 0002:0000a964       $N00028                    1002d964     odbc_bindings.exp
 0002:0000a98a       $N00029                    1002d98a     odbc_bindings.exp
 0002:0000a9bc       $N00030                    1002d9bc     odbc_bindings.exp
 0002:0000a9e8       $N00031                    1002d9e8     odbc_bindings.exp
 0002:0000aa18       $N00032                    1002da18     odbc_bindings.exp
 0002:0000aa3e       $N00033                    1002da3e     odbc_bindings.exp
 0002:0000aa5a       $N00034                    1002da5a     odbc_bindings.exp
 0002:0000aa87       $N00035                    1002da87     odbc_bindings.exp
 0002:0000aab2       $N00036                    1002dab2     odbc_bindings.exp
 0002:0000aae3       $N00037                    1002dae3     odbc_bindings.exp
 0002:0000ab04       $N00038                    1002db04     odbc_bindings.exp
 0002:0000ab23       $N00039                    1002db23     odbc_bindings.exp
 0002:0000ab4a       $N00040                    1002db4a     odbc_bindings.exp
 0002:0000ab6f       $N00041                    1002db6f     odbc_bindings.exp
 0002:0000ab9a       $N00042                    1002db9a     odbc_bindings.exp
 0002:0000abc3       $N00043                    1002dbc3     odbc_bindings.exp
 0002:0000abe6       $N00044                    1002dbe6     odbc_bindings.exp
 0002:0000ac07       $N00045                    1002dc07     odbc_bindings.exp
 0002:0000ac30       $N00046                    1002dc30     odbc_bindings.exp
 0002:0000ac57       $N00047                    1002dc57     odbc_bindings.exp
 0002:0000ac89       $N00048                    1002dc89     odbc_bindings.exp
 0002:0000acb9       $N00049                    1002dcb9     odbc_bindings.exp
 0002:0000acf1       $N00050                    1002dcf1     odbc_bindings.exp
 0002:0000ad27       $N00051                    1002dd27     odbc_bindings.exp
 0002:0000ad4a       $N00052                    1002dd4a     odbc_bindings.exp
 0002:0000ad6b       $N00053                    1002dd6b     odbc_bindings.exp
 0002:0000ad8b       $N00054                    1002dd8b     odbc_bindings.exp
 0002:0000ada9       $N00055                    1002dda9     odbc_bindings.exp
 0002:0000adcd       $N00056                    1002ddcd     odbc_bindings.exp
 0002:0000adef       $N00057                    1002ddef     odbc_bindings.exp
 0002:0000ae0f       $N00058                    1002de0f     odbc_bindings.exp
 0002:0000ae2d       $N00059                    1002de2d     odbc_bindings.exp
 0002:0000ae52       $N00060                    1002de52     odbc_bindings.exp
 0002:0000ae75       $N00061                    1002de75     odbc_bindings.exp
 0002:0000ae99       $N00062                    1002de99     odbc_bindings.exp
 0002:0000aebb       $N00063                    1002debb     odbc_bindings.exp
 0002:0000aeec       $N00064                    1002deec     odbc_bindings.exp
 0002:0000af2b       $N00065                    1002df2b     odbc_bindings.exp
 0002:0000af53       $N00066                    1002df53     odbc_bindings.exp
 0002:0000af79       $N00067                    1002df79     odbc_bindings.exp
 0002:0000afa1       $N00068                    1002dfa1     odbc_bindings.exp
 0002:0000afc7       $N00069                    1002dfc7     odbc_bindings.exp
 0002:0000afeb       $N00070                    1002dfeb     odbc_bindings.exp
 0002:0000b00d       $N00071                    1002e00d     odbc_bindings.exp
 0002:0000b039       $N00072                    1002e039     odbc_bindings.exp
 0002:0000b063       $N00073                    1002e063     odbc_bindings.exp
 0002:0000b093       $N00074                    1002e093     odbc_bindings.exp
 0002:0000b0c1       $N00075                    1002e0c1     odbc_bindings.exp
 0002:0000b0f0       $N00076                    1002e0f0     odbc_bindings.exp
 0002:0000b11d       $N00077                    1002e11d     odbc_bindings.exp
 0002:0000b147       $N00078                    1002e147     odbc_bindings.exp
 0002:0000b16f       $N00079                    1002e16f     odbc_bindings.exp
 0002:0000b195       $N00080                    1002e195     odbc_bindings.exp
 0002:0000b1b9       $N00081                    1002e1b9     odbc_bindings.exp
 0002:0000b1da       $N00082                    1002e1da     odbc_bindings.exp
 0002:0000b1f9       $N00083                    1002e1f9     odbc_bindings.exp
 0002:0000b21f       $N00084                    1002e21f     odbc_bindings.exp
 0002:0000b243       $N00085                    1002e243     odbc_bindings.exp
 0002:0000b268       $N00086                    1002e268     odbc_bindings.exp
 0002:0000b28b       $N00087                    1002e28b     odbc_bindings.exp
 0002:0000b2ae       $N00088                    1002e2ae     odbc_bindings.exp
 0002:0000b2cf       $N00089                    1002e2cf     odbc_bindings.exp
 0002:0000b2ef       $N00090                    1002e2ef     odbc_bindings.exp
 0002:0000b30d       $N00091                    1002e30d     odbc_bindings.exp
 0002:0000b32c       $N00092                    1002e32c     odbc_bindings.exp
 0002:0000b349       $N00093                    1002e349     odbc_bindings.exp
 0002:0000b36c       $N00094                    1002e36c     odbc_bindings.exp
 0002:0000b38d       $N00095                    1002e38d     odbc_bindings.exp
 0002:0000b3ad       $N00096                    1002e3ad     odbc_bindings.exp
 0002:0000b3cb       $N00097                    1002e3cb     odbc_bindings.exp
 0002:0000b3f4       $N00098                    1002e3f4     odbc_bindings.exp
 0002:0000b41b       $N00099                    1002e41b     odbc_bindings.exp
 0002:0000b43d       $N00100                    1002e43d     odbc_bindings.exp
 0002:0000b45d       $N00101                    1002e45d     odbc_bindings.exp
 0002:0000b485       $N00102                    1002e485     odbc_bindings.exp
 0002:0000b4ab       $N00103                    1002e4ab     odbc_bindings.exp
 0002:0000b4cd       $N00104                    1002e4cd     odbc_bindings.exp
 0002:0000b4ed       $N00105                    1002e4ed     odbc_bindings.exp
 0002:0000b517       $N00106                    1002e517     odbc_bindings.exp
 0002:0000b53f       $N00107                    1002e53f     odbc_bindings.exp
 0002:0000b570       $N00108                    1002e570     odbc_bindings.exp
 0002:0000b595       $N00109                    1002e595     odbc_bindings.exp
 0002:0000b5b8       $N00110                    1002e5b8     odbc_bindings.exp
 0002:0000b5db       $N00111                    1002e5db     odbc_bindings.exp
 0002:0000b5fc       $N00112                    1002e5fc     odbc_bindings.exp
 0002:0000b61e       $N00113                    1002e61e     odbc_bindings.exp
 0002:0000b63e       $N00114                    1002e63e     odbc_bindings.exp
 0002:0000b66c       $N00115                    1002e66c     odbc_bindings.exp
 0002:0000b698       $N00116                    1002e698     odbc_bindings.exp
 0002:0000b6c7       $N00117                    1002e6c7     odbc_bindings.exp
 0002:0000b6f4       $N00118                    1002e6f4     odbc_bindings.exp
 0002:0000b716       $N00119                    1002e716     odbc_bindings.exp
 0002:0000b736       $N00120                    1002e736     odbc_bindings.exp
 0002:0000b760       $N00121                    1002e760     odbc_bindings.exp
 0002:0000b788       $N00122                    1002e788     odbc_bindings.exp
 0002:0000b7a7       $N00123                    1002e7a7     odbc_bindings.exp
 0002:0000b7c4       $N00124                    1002e7c4     odbc_bindings.exp
 0002:0000b7f1       $N00125                    1002e7f1     odbc_bindings.exp
 0002:0000b81c       $N00126                    1002e81c     odbc_bindings.exp
 0002:0000b841       $N00127                    1002e841     odbc_bindings.exp
 0002:0000b864       $N00128                    1002e864     odbc_bindings.exp
 0002:0000b88a       $N00129                    1002e88a     odbc_bindings.exp
 0002:0000b8ae       $N00130                    1002e8ae     odbc_bindings.exp
 0002:0000b8d4       $N00131                    1002e8d4     odbc_bindings.exp
 0002:0000b8f8       $N00132                    1002e8f8     odbc_bindings.exp
 0002:0000b91f       $N00133                    1002e91f     odbc_bindings.exp
 0002:0000b944       $N00134                    1002e944     odbc_bindings.exp
 0002:0000b966       $N00135                    1002e966     odbc_bindings.exp
 0002:0000b986       $N00136                    1002e986     odbc_bindings.exp
 0002:0000b9ae       $N00137                    1002e9ae     odbc_bindings.exp
 0002:0000b9d4       $N00138                    1002e9d4     odbc_bindings.exp
 0002:0000b9f6       $N00139                    1002e9f6     odbc_bindings.exp
 0002:0000ba16       $N00140                    1002ea16     odbc_bindings.exp
 0002:0000ba3e       $N00141                    1002ea3e     odbc_bindings.exp
 0002:0000ba64       $N00142                    1002ea64     odbc_bindings.exp
 0002:0000ba88       $N00143                    1002ea88     odbc_bindings.exp
 0002:0000baaa       $N00144                    1002eaaa     odbc_bindings.exp
 0002:0000bad0       $N00145                    1002ead0     odbc_bindings.exp
 0002:0000baf4       $N00146                    1002eaf4     odbc_bindings.exp
 0002:0000bb1a       $N00147                    1002eb1a     odbc_bindings.exp
 0002:0000bb3e       $N00148                    1002eb3e     odbc_bindings.exp
 0002:0000bb65       $N00149                    1002eb65     odbc_bindings.exp
 0002:0000bb8a       $N00150                    1002eb8a     odbc_bindings.exp
 0002:0000bbac       $N00151                    1002ebac     odbc_bindings.exp
 0002:0000bbcc       $N00152                    1002ebcc     odbc_bindings.exp
 0002:0000bbf3       $N00153                    1002ebf3     odbc_bindings.exp
 0002:0000bc18       $N00154                    1002ec18     odbc_bindings.exp
 0002:0000bc3e       $N00155                    1002ec3e     odbc_bindings.exp
 0002:0000bc62       $N00156                    1002ec62     odbc_bindings.exp
 0002:0000bc8f       $N00157                    1002ec8f     odbc_bindings.exp
 0002:0000bcba       $N00158                    1002ecba     odbc_bindings.exp
 0002:0000bce3       $N00159                    1002ece3     odbc_bindings.exp
 0002:0000bd0a       $N00160                    1002ed0a     odbc_bindings.exp
 0002:0000bd2c       $N00161                    1002ed2c     odbc_bindings.exp
 0002:0000bd4a       $N00162                    1002ed4a     odbc_bindings.exp
 0002:0000bd66       $N00163                    1002ed66     odbc_bindings.exp
 0002:0000bd87       $N00164                    1002ed87     odbc_bindings.exp
 0002:0000bda6       $N00165                    1002eda6     odbc_bindings.exp
 0002:0000bdc7       $N00166                    1002edc7     odbc_bindings.exp
 0002:0000bde8       $N00167                    1002ede8     odbc_bindings.exp
 0002:0000be05       $N00168                    1002ee05     odbc_bindings.exp
 0002:0000be22       $N00169                    1002ee22     odbc_bindings.exp
 0002:0000be44       $N00170                    1002ee44     odbc_bindings.exp
 0002:0000be5a       $N00171                    1002ee5a     odbc_bindings.exp
 0002:0000be8b       $N00172                    1002ee8b     odbc_bindings.exp
 0002:0000beb9       $N00173                    1002eeb9     odbc_bindings.exp
 0002:0000bedd       $N00174                    1002eedd     odbc_bindings.exp
 0002:0000bf0d       $N00175                    1002ef0d     odbc_bindings.exp
 0002:0000bf37       $N00176                    1002ef37     odbc_bindings.exp
 0002:0000bf65       $N00177                    1002ef65     odbc_bindings.exp
 0002:0000bf89       $N00178                    1002ef89     odbc_bindings.exp
 0002:0000bfe1       $N00179                    1002efe1     odbc_bindings.exp
 0002:0000c03a       $N00180                    1002f03a     odbc_bindings.exp
 0002:0000c077       $N00181                    1002f077     odbc_bindings.exp
 0002:0000c0a3       $N00182                    1002f0a3     odbc_bindings.exp
 0002:0000c0d5       $N00183                    1002f0d5     odbc_bindings.exp
 0002:0000c109       $N00184                    1002f109     odbc_bindings.exp
 0002:0000c12f       $N00185                    1002f12f     odbc_bindings.exp
 0002:0000c15b       $N00186                    1002f15b     odbc_bindings.exp
 0002:0000c18b       $N00187                    1002f18b     odbc_bindings.exp
 0002:0000c1b3       $N00188                    1002f1b3     odbc_bindings.exp
 0002:0000c1e1       $N00189                    1002f1e1     odbc_bindings.exp
 0002:0000c20a       $N00190                    1002f20a     odbc_bindings.exp
 0002:0000c22f       $N00191                    1002f22f     odbc_bindings.exp
 0002:0000c258       $N00192                    1002f258     odbc_bindings.exp
 0002:0000c285       $N00193                    1002f285     odbc_bindings.exp
 0002:0000c2b2       $N00194                    1002f2b2     odbc_bindings.exp
 0002:0000c2db       $N00195                    1002f2db     odbc_bindings.exp
 0002:0000c306       $N00196                    1002f306     odbc_bindings.exp
 0002:0000c32c       $N00197                    1002f32c     odbc_bindings.exp
 0002:0000c357       $N00198                    1002f357     odbc_bindings.exp
 0002:0000c381       $N00199                    1002f381     odbc_bindings.exp
 0002:0000c3a9       $N00200                    1002f3a9     odbc_bindings.exp
 0002:0000c3cd       $N00201                    1002f3cd     odbc_bindings.exp
 0002:0000c3f2       $N00202                    1002f3f2     odbc_bindings.exp
 0002:0000c419       $N00203                    1002f419     odbc_bindings.exp
 0002:0000c446       $N00204                    1002f446     odbc_bindings.exp
 0002:0000c46d       $N00205                    1002f46d     odbc_bindings.exp
 0002:0000c495       $N00206                    1002f495     odbc_bindings.exp
 0002:0000c4bc       $N00207                    1002f4bc     odbc_bindings.exp
 0002:0000c4ee       $N00208                    1002f4ee     odbc_bindings.exp
 0002:0000c512       $N00209                    1002f512     odbc_bindings.exp
 0002:0000c544       $N00210                    1002f544     odbc_bindings.exp
 0002:0000c56b       $N00211                    1002f56b     odbc_bindings.exp
 0002:0000c598       $N00212                    1002f598     odbc_bindings.exp
 0002:0000c5bf       $N00213                    1002f5bf     odbc_bindings.exp
 0002:0000c5ec       $N00214                    1002f5ec     odbc_bindings.exp
 0002:0000c617       $N00215                    1002f617     odbc_bindings.exp
 0002:0000c643       $N00216                    1002f643     odbc_bindings.exp
 0002:0000c66a       $N00217                    1002f66a     odbc_bindings.exp
 0002:0000c696       $N00218                    1002f696     odbc_bindings.exp
 0002:0000c6c1       $N00219                    1002f6c1     odbc_bindings.exp
 0002:0000c6f3       $N00220                    1002f6f3     odbc_bindings.exp
 0002:0000c71b       $N00221                    1002f71b     odbc_bindings.exp
 0002:0000c749       $N00222                    1002f749     odbc_bindings.exp
 0002:0000c77f       $N00223                    1002f77f     odbc_bindings.exp
 0002:0000c7bd       $N00224                    1002f7bd     odbc_bindings.exp
 0002:0000c7f6       $N00225                    1002f7f6     odbc_bindings.exp
 0002:0000c82f       $N00226                    1002f82f     odbc_bindings.exp
 0002:0000c88a       $N00227                    1002f88a     odbc_bindings.exp
 0002:0000c8a9       $N00228                    1002f8a9     odbc_bindings.exp
 0002:0000c8e6       $N00229                    1002f8e6     odbc_bindings.exp
 0002:0000c92f       $N00230                    1002f92f     odbc_bindings.exp
 0002:0000c990       $N00231                    1002f990     odbc_bindings.exp
 0002:0000c9cd       $N00232                    1002f9cd     odbc_bindings.exp
 0002:0000c9fc       $N00233                    1002f9fc     odbc_bindings.exp
 0002:0000ca74       $N00234                    1002fa74     odbc_bindings.exp
 0002:0000ca9c       $N00235                    1002fa9c     odbc_bindings.exp
 0002:0000cae4       $N00236                    1002fae4     odbc_bindings.exp
 0002:0000cafa       $N00237                    1002fafa     odbc_bindings.exp
 0002:0000cb2d       $N00238                    1002fb2d     odbc_bindings.exp
 0002:0000cb47       $N00239                    1002fb47     odbc_bindings.exp
 0002:0000cb63       $N00240                    1002fb63     odbc_bindings.exp
 0002:0000cb82       $N00241                    1002fb82     odbc_bindings.exp
 0002:0000cbb7       $N00242                    1002fbb7     odbc_bindings.exp
 0002:0000cbf7       $N00243                    1002fbf7     odbc_bindings.exp
 0002:0000cc4f       $N00244                    1002fc4f     odbc_bindings.exp
 0002:0000cc6e       $N00245                    1002fc6e     odbc_bindings.exp
 0002:0000cc8f       $N00246                    1002fc8f     odbc_bindings.exp
 0002:0000ccb3       $N00247                    1002fcb3     odbc_bindings.exp
 0002:0000ccff       $N00248                    1002fcff     odbc_bindings.exp
 0002:0000cd4b       $N00249                    1002fd4b     odbc_bindings.exp
 0002:0000cda4       $N00250                    1002fda4     odbc_bindings.exp
 0002:0000cdff       $N00251                    1002fdff     odbc_bindings.exp
 0002:0000ce3e       $N00252                    1002fe3e     odbc_bindings.exp
 0002:0000ce96       $N00253                    1002fe96     odbc_bindings.exp
 0002:0000cef2       $N00254                    1002fef2     odbc_bindings.exp
 0002:0000cf12       $N00255                    1002ff12     odbc_bindings.exp
 0002:0000cf89       $N00256                    1002ff89     odbc_bindings.exp
 0002:0000cfb6       $N00257                    1002ffb6     odbc_bindings.exp
 0002:0000d0ca       $N00258                    100300ca     odbc_bindings.exp
 0002:0000d0f8       $N00259                    100300f8     odbc_bindings.exp
 0002:0000d12e       $N00260                    1003012e     odbc_bindings.exp
 0002:0000d168       $N00261                    10030168     odbc_bindings.exp
 0002:0000d19a       $N00262                    1003019a     odbc_bindings.exp
 0002:0000d1d0       $N00263                    100301d0     odbc_bindings.exp
 0002:0000d204       $N00264                    10030204     odbc_bindings.exp
 0002:0000d238       $N00265                    10030238     odbc_bindings.exp
 0002:0000d26c       $N00266                    1003026c     odbc_bindings.exp
 0002:0000d2a0       $N00267                    100302a0     odbc_bindings.exp
 0002:0000d2e2       $N00268                    100302e2     odbc_bindings.exp
 0002:0000d332       $N00269                    10030332     odbc_bindings.exp
 0002:0000d38b       $N00270                    1003038b     odbc_bindings.exp
 0002:0000d3dc       $N00271                    100303dc     odbc_bindings.exp
 0002:0000d420       $N00272                    10030420     odbc_bindings.exp
 0002:0000d4a6       $N00273                    100304a6     odbc_bindings.exp
 0002:0000d4c9       $N00274                    100304c9     odbc_bindings.exp
 0002:0000d4f6       $N00275                    100304f6     odbc_bindings.exp
 0002:0000d526       $N00276                    10030526     odbc_bindings.exp
 0002:0000d55b       $N00277                    1003055b     odbc_bindings.exp
 0002:0000d582       $N00278                    10030582     odbc_bindings.exp
 0002:0000d5a9       $N00279                    100305a9     odbc_bindings.exp
 0002:0000d5d4       $N00280                    100305d4     odbc_bindings.exp
 0002:0000d5ff       $N00281                    100305ff     odbc_bindings.exp
 0002:0000d63c       $N00282                    1003063c     odbc_bindings.exp
 0002:0000d671       $N00283                    10030671     odbc_bindings.exp
 0002:0000d695       $N00284                    10030695     odbc_bindings.exp
 0002:0000d6b5       $N00285                    100306b5     odbc_bindings.exp
 0002:0000d6e9       $N00286                    100306e9     odbc_bindings.exp
 0002:0000d71c       $N00287                    1003071c     odbc_bindings.exp
 0002:0000d750       $N00288                    10030750     odbc_bindings.exp
 0002:0000d76d       $N00289                    1003076d     odbc_bindings.exp
 0002:0000d79b       $N00290                    1003079b     odbc_bindings.exp
 0002:0000d7c8       $N00291                    100307c8     odbc_bindings.exp
 0002:0000d7fb       $N00292                    100307fb     odbc_bindings.exp
 0002:0000d82a       $N00293                    1003082a     odbc_bindings.exp
 0002:0000d85e       $N00294                    1003085e     odbc_bindings.exp
 0002:0000d886       $N00295                    10030886     odbc_bindings.exp
 0002:0000d8bb       $N00296                    100308bb     odbc_bindings.exp
 0002:0000d8f4       $N00297                    100308f4     odbc_bindings.exp
 0002:0000d92c       $N00298                    1003092c     odbc_bindings.exp
 0002:0000d965       $N00299                    10030965     odbc_bindings.exp
 0002:0000d998       $N00300                    10030998     odbc_bindings.exp
 0002:0000d9de       $N00301                    100309de     odbc_bindings.exp
 0002:0000da02       $N00302                    10030a02     odbc_bindings.exp
 0002:0000da37       $N00303                    10030a37     odbc_bindings.exp
 0002:0000da64       $N00304                    10030a64     odbc_bindings.exp
 0002:0000da8f       $N00305                    10030a8f     odbc_bindings.exp
 0002:0000dabf       $N00306                    10030abf     odbc_bindings.exp
 0002:0000daed       $N00307                    10030aed     odbc_bindings.exp
 0002:0000db1d       $N00308                    10030b1d     odbc_bindings.exp
 0002:0000db48       $N00309                    10030b48     odbc_bindings.exp
 0002:0000db7e       $N00310                    10030b7e     odbc_bindings.exp
 0002:0000dbad       $N00311                    10030bad     odbc_bindings.exp
 0002:0000dbd7       $N00312                    10030bd7     odbc_bindings.exp
 0002:0000dddc       .idata$6                   10030ddc     kernel32:KERNEL32.dll
 0002:0000ddea       .idata$6                   10030dea     odbc32:ODBC32.dll
 0002:0000e2ea       .idata$6                   100312ea     advapi32:ADVAPI32.dll
 0003:00000010       ?_Tlg_Microsoft_CRTProviderProv@@3U_TlgProvider_t@__vcrt_trace_logging_provider@@A 10032010     libvcruntime:telemetry.obj
 0003:00000050       ?__vcrt_flsindex@@3KA      10032050     libvcruntime:per_thread_data.obj
 0003:00000074       _errno_no_memory           10032074     libucrt:errno.obj
 0003:00000078       _doserrno_no_memory        10032078     libucrt:errno.obj
 0003:00000080       _tzstd_program             10032080     libucrt:timeset.obj
 0003:000000c0       _tzdst_program             100320c0     libucrt:timeset.obj
 0003:00000100       _tzname_states             10032100     libucrt:timeset.obj
 0003:00000108       _dststart                  10032108     libucrt:tzset.obj
 0003:00000114       _dstend                    10032114     libucrt:tzset.obj
 0003:000001cc       ___acrt_flsindex           100321cc     libucrt:per_thread_data.obj
 0003:00000294       ___rgctypeflag             10032294     libucrt:mbctype.obj
 0003:00000298       ___rgcode_page_info        10032298     libucrt:mbctype.obj
 0003:00000870       __module                   10032870     odbc.obj
 0003:00000b04       ?module_local_atexit_table@@3U_onexit_table_t@@A 10032b04     LIBCMT:utility.obj
 0003:00000b10       ?module_local_at_quick_exit_table@@3U_onexit_table_t@@A 10032b10     LIBCMT:utility.obj
 0003:00000b1c       ?is_initialized_as_dll@@3_NA 10032b1c     LIBCMT:utility.obj
 0003:00000b20       ?__proc_attached@@3HA      10032b20     LIBCMT:dll_dllmain.obj
 0003:00000b28       _GS_ExceptionRecord        10032b28     LIBCMT:gs_report.obj
 0003:00000b78       _GS_ContextRecord          10032b78     LIBCMT:gs_report.obj
 0003:00000e6c       ?__vcrt_startup_thread_ptd@@3U__vcrt_ptd@@A 10032e6c     libvcruntime:per_thread_data.obj
 0003:00000e94       ___vcrt_lock_table         10032e94     libvcruntime:locks.obj
 0003:00000eac       ___vcrt_locks_initialized  10032eac     libvcruntime:locks.obj
 0003:00000eb0       ?module_handles@@3PAPAUHINSTANCE__@@A 10032eb0     libvcruntime:winapi_downlevel.obj
 0003:00000ec0       ?encoded_function_pointers@@3PAPAXA 10032ec0     libvcruntime:winapi_downlevel.obj
 0003:00000f0c       ?heap@@3V_HeapManager@@A   10032f0c     libvcruntime:undname.obj
 0003:00000f20       ___acrt_new_handler        10032f20     libucrt:new_handler.obj
 0003:00000f24       _c_termination_complete    10032f24     libucrt:exit.obj
 0003:00000f28       _thread_local_exit_callback_func 10032f28     libucrt:exit.obj
 0003:00000f2c       ?c_exit_complete@?5??common_exit@@YAXHW4_crt_exit_cleanup_mode@@W4_crt_exit_return_mode@@@Z@4_NA 10032f2c     libucrt:exit.obj
 0003:00000f58       ___acrt_invalid_parameter_handler 10032f58     libucrt:invalid_parameter.obj
 0003:00000f68       __tzname                   10032f68     libucrt:timeset.obj
 0003:00000f6c       _last_tz                   10032f6c     libucrt:tzset.obj
 0003:00000f70       _tz_api_used               10032f70     libucrt:tzset.obj
 0003:00000f78       _tz_info                   10032f78     libucrt:tzset.obj
 0003:00001024       ?first_time@?1??__tzset@@9@4JA 10033024     libucrt:tzset.obj
 0003:00001028       ___acrt_app_type           10033028     libucrt:report_runtime_error.obj
 0003:0000102c       ___acrt_error_mode         1003302c     libucrt:set_error_mode.obj
 0003:0000103c       _ctrlc_action              1003303c     libucrt:signal.obj
 0003:00001040       _ctrlbreak_action          10033040     libucrt:signal.obj
 0003:00001044       _abort_action              10033044     libucrt:signal.obj
 0003:00001048       _term_action               10033048     libucrt:signal.obj
 0003:00001058       ___acrt_lock_table         10033058     libucrt:locks.obj
 0003:00001190       ___acrt_locks_initialized  10033190     libucrt:locks.obj
 0003:00001198       _module_handles            10033198     libucrt:winapi_thunks.obj
 0003:000011e8       _encoded_function_pointers 100331e8     libucrt:winapi_thunks.obj
 0003:00001268       ?state_cache@?1??__acrt_is_packaged_app@@9@4JA 10033268     libucrt:winapi_thunks.obj
 0003:00001284       _fSystemSet                10033284     libucrt:mbctype.obj
 0003:00001288       ?initialized@?1??__acrt_initialize_multibyte@@9@4_NA 10033288     libucrt:mbctype.obj
 0003:000014a4       _user_matherr              100334a4     libucrt:matherr.obj
 0003:000014b0       ___acrt_global_new_mode    100334b0     libucrt:new_mode.obj
 0003:000014b4       _enable_percent_n          100334b4     libucrt:printf_count_output.obj
 0003:000014c4       __pmatherr_set             100334c4     libucrt:libm_error.obj
 0004:00000000       __guard_fids____dcrt_uninitialize_environments_nolock 10034000     libucrt:environment_initialization.obj
 0004:00000008       __guard_fids__             10034008     libucrt:initialization.obj
 0004:00000068       __guard_fids_??$common_show_message_box@_W@@YAHQB_W0I@Z 10034068     libucrt:crtmbox.obj
 0004:0000006c       __guard_fids____acrt_initialize_ptd 1003406c     libucrt:per_thread_data.obj
 0004:00000070       __guard_fids__             10034070     libucrt:timeset_initializer.obj
 0004:00000074       __guard_fids__             10034074     libucrt:stdio_initializer.obj
 0004:00000078       __guard_fids__             10034078     libucrt:stdio_initializer.obj
 0004:0000007c       __guard_fids__             1003407c     libucrt:locale_initializer.obj
 0004:00000080       __guard_fids__             10034080     libucrt:multibyte_initializer.obj
 0004:00000084       __guard_fids____libm_error_support 10034084     libucrt:libm_error.obj
 0004:00000088       __guard_fids__             10034088     libucrt:console_output_initializer.obj
 0004:0000008c       __guard_fids__             1003408c     libucrt:sse2_initializer.obj
 0004:00000090       __guard_fids_?dllmain_crt_process_attach@@YAHQAUHINSTANCE__@@QAX@Z 10034090     LIBCMT:dll_dllmain.obj
 0004:00000098       __guard_fids_?dllmain_dispatch@@YAHQAUHINSTANCE__@@KQAX@Z 10034098     LIBCMT:dll_dllmain.obj
 0004:0000009c       __guard_fids__             1003409c     LIBCMT:throw_bad_alloc.obj
 0004:000000a4       __guard_fids__             100340a4     LIBCMT:throw_bad_alloc.obj
 0004:000000ac       __guard_fids__             100340ac     LIBCMT:throw_bad_alloc.obj
 0004:000000b4       __guard_fids__             100340b4     LIBCMT:throw_bad_alloc.obj
 0004:000000b8       __guard_fids__             100340b8     LIBCMT:throw_bad_alloc.obj
 0004:000000bc       __guard_fids__             100340bc     LIBCMT:throw_bad_alloc.obj
 0004:000000c0       __guard_fids__             100340c0     LIBCMT:throw_bad_alloc.obj
 0004:000000c4       __guard_fids__             100340c4     LIBCMT:throw_bad_alloc.obj
 0004:000000c8       __guard_fids__             100340c8     LIBCMT:std_type_info_static.obj
 0004:000000cc       __guard_fids__             100340cc     LIBCMT:guard_support.obj
 0004:000000d0       __guard_fids__             100340d0     libvcruntime:telemetry.obj
 0004:000000d4       __guard_fids_?TraceLoggingRegister@__vcrt_trace_logging_provider@@YAJPBU_TlgProvider_t@1@PBU_GUID@@P6GX1KE_K2PAU_EVENT_FILTER_DESCRIPTOR@@PAX@Z4@Z 100340d4     libvcruntime:telemetry.obj
 0004:000000d8       __guard_fids____vcrt_initialize_ptd 100340d8     libvcruntime:per_thread_data.obj
 0005:00000060       $R000000                   10035060     * linker generated manifest res *

 Exports

  ordinal    name

        1    ??0Allocator@ArrayBuffer@v8@@QAE@ABV012@@Z (public: __thiscall v8::ArrayBuffer::Allocator::Allocator(class v8::ArrayBuffer::Allocator const &))
        2    ??0Allocator@ArrayBuffer@v8@@QAE@XZ (public: __thiscall v8::ArrayBuffer::Allocator::Allocator(void))
        3    ??0CachedData@ScriptCompiler@v8@@QAE@XZ (public: __thiscall v8::ScriptCompiler::CachedData::CachedData(void))
        4    ??0Contents@ArrayBuffer@v8@@QAE@XZ (public: __thiscall v8::ArrayBuffer::Contents::Contents(void))
        5    ??0Contents@SharedArrayBuffer@v8@@QAE@XZ (public: __thiscall v8::SharedArrayBuffer::Contents::Contents(void))
        6    ??0ExtensionConfiguration@v8@@QAE@HQAPBD@Z (public: __thiscall v8::ExtensionConfiguration::ExtensionConfiguration(int,char const * * const))
        7    ??0ExtensionConfiguration@v8@@QAE@XZ (public: __thiscall v8::ExtensionConfiguration::ExtensionConfiguration(void))
        8    ??0ExternalOneByteStringResource@String@v8@@IAE@XZ (protected: __thiscall v8::String::ExternalOneByteStringResource::ExternalOneByteStringResource(void))
        9    ??0ExternalOneByteStringResourceImpl@v8@@QAE@PBDI@Z (public: __thiscall v8::ExternalOneByteStringResourceImpl::ExternalOneByteStringResourceImpl(char const *,unsigned int))
       10    ??0ExternalOneByteStringResourceImpl@v8@@QAE@XZ (public: __thiscall v8::ExternalOneByteStringResourceImpl::ExternalOneByteStringResourceImpl(void))
       11    ??0ExternalResourceVisitor@v8@@QAE@ABV01@@Z (public: __thiscall v8::ExternalResourceVisitor::ExternalResourceVisitor(class v8::ExternalResourceVisitor const &))
       12    ??0ExternalResourceVisitor@v8@@QAE@XZ (public: __thiscall v8::ExternalResourceVisitor::ExternalResourceVisitor(void))
       13    ??0ExternalSourceStream@ScriptCompiler@v8@@QAE@ABV012@@Z (public: __thiscall v8::ScriptCompiler::ExternalSourceStream::ExternalSourceStream(class v8::ScriptCompiler::ExternalSourceStream const &))
       14    ??0ExternalSourceStream@ScriptCompiler@v8@@QAE@XZ (public: __thiscall v8::ScriptCompiler::ExternalSourceStream::ExternalSourceStream(void))
       15    ??0ExternalStringResource@String@v8@@IAE@XZ (protected: __thiscall v8::String::ExternalStringResource::ExternalStringResource(void))
       16    ??0ExternalStringResourceBase@String@v8@@IAE@XZ (protected: __thiscall v8::String::ExternalStringResourceBase::ExternalStringResourceBase(void))
       17    ??0HandleScope@v8@@IAE@XZ (protected: __thiscall v8::HandleScope::HandleScope(void))
       18    ??0Locker@v8@@QAE@PAVIsolate@1@@Z (public: __thiscall v8::Locker::Locker(class v8::Isolate *))
       19    ??0PersistentHandleVisitor@v8@@QAE@ABV01@@Z (public: __thiscall v8::PersistentHandleVisitor::PersistentHandleVisitor(class v8::PersistentHandleVisitor const &))
       20    ??0PersistentHandleVisitor@v8@@QAE@XZ (public: __thiscall v8::PersistentHandleVisitor::PersistentHandleVisitor(void))
       21    ??0Scope@Isolate@v8@@QAE@PAV12@@Z (public: __thiscall v8::Isolate::Scope::Scope(class v8::Isolate *))
       22    ??0Unlocker@v8@@QAE@PAVIsolate@1@@Z (public: __thiscall v8::Unlocker::Unlocker(class v8::Isolate *))
       23    ??1Allocator@ArrayBuffer@v8@@UAE@XZ (public: virtual __thiscall v8::ArrayBuffer::Allocator::~Allocator(void))
       24    ??1EscapableHandleScope@v8@@QAE@XZ (public: __thiscall v8::EscapableHandleScope::~EscapableHandleScope(void))
       25    ??1Extension@v8@@UAE@XZ (public: virtual __thiscall v8::Extension::~Extension(void))
       26    ??1ExternalOneByteStringResource@String@v8@@UAE@XZ (public: virtual __thiscall v8::String::ExternalOneByteStringResource::~ExternalOneByteStringResource(void))
       27    ??1ExternalOneByteStringResourceImpl@v8@@UAE@XZ (public: virtual __thiscall v8::ExternalOneByteStringResourceImpl::~ExternalOneByteStringResourceImpl(void))
       28    ??1ExternalResourceVisitor@v8@@UAE@XZ (public: virtual __thiscall v8::ExternalResourceVisitor::~ExternalResourceVisitor(void))
       29    ??1ExternalSourceStream@ScriptCompiler@v8@@UAE@XZ (public: virtual __thiscall v8::ScriptCompiler::ExternalSourceStream::~ExternalSourceStream(void))
       30    ??1ExternalStringResource@String@v8@@UAE@XZ (public: virtual __thiscall v8::String::ExternalStringResource::~ExternalStringResource(void))
       31    ??1ExternalStringResourceBase@String@v8@@UAE@XZ (public: virtual __thiscall v8::String::ExternalStringResourceBase::~ExternalStringResourceBase(void))
       32    ??1PersistentHandleVisitor@v8@@UAE@XZ (public: virtual __thiscall v8::PersistentHandleVisitor::~PersistentHandleVisitor(void))
       33    ??1Scope@Isolate@v8@@QAE@XZ (public: __thiscall v8::Isolate::Scope::~Scope(void))
       34    ??4AccessorSignature@v8@@QAEAAV01@$$QAV01@@Z (public: class v8::AccessorSignature & __thiscall v8::AccessorSignature::operator=(class v8::AccessorSignature &&))
       35    ??4AccessorSignature@v8@@QAEAAV01@ABV01@@Z (public: class v8::AccessorSignature & __thiscall v8::AccessorSignature::operator=(class v8::AccessorSignature const &))
       36    ??4Allocator@ArrayBuffer@v8@@QAEAAV012@ABV012@@Z (public: class v8::ArrayBuffer::Allocator & __thiscall v8::ArrayBuffer::Allocator::operator=(class v8::ArrayBuffer::Allocator const &))
       37    ??4Array@v8@@QAEAAV01@$$QAV01@@Z (public: class v8::Array & __thiscall v8::Array::operator=(class v8::Array &&))
       38    ??4Array@v8@@QAEAAV01@ABV01@@Z (public: class v8::Array & __thiscall v8::Array::operator=(class v8::Array const &))
       39    ??4ArrayBuffer@v8@@QAEAAV01@$$QAV01@@Z (public: class v8::ArrayBuffer & __thiscall v8::ArrayBuffer::operator=(class v8::ArrayBuffer &&))
       40    ??4ArrayBuffer@v8@@QAEAAV01@ABV01@@Z (public: class v8::ArrayBuffer & __thiscall v8::ArrayBuffer::operator=(class v8::ArrayBuffer const &))
       41    ??4ArrayBufferView@v8@@QAEAAV01@$$QAV01@@Z (public: class v8::ArrayBufferView & __thiscall v8::ArrayBufferView::operator=(class v8::ArrayBufferView &&))
       42    ??4ArrayBufferView@v8@@QAEAAV01@ABV01@@Z (public: class v8::ArrayBufferView & __thiscall v8::ArrayBufferView::operator=(class v8::ArrayBufferView const &))
       43    ??4Boolean@v8@@QAEAAV01@$$QAV01@@Z (public: class v8::Boolean & __thiscall v8::Boolean::operator=(class v8::Boolean &&))
       44    ??4Boolean@v8@@QAEAAV01@ABV01@@Z (public: class v8::Boolean & __thiscall v8::Boolean::operator=(class v8::Boolean const &))
       45    ??4BooleanObject@v8@@QAEAAV01@$$QAV01@@Z (public: class v8::BooleanObject & __thiscall v8::BooleanObject::operator=(class v8::BooleanObject &&))
       46    ??4BooleanObject@v8@@QAEAAV01@ABV01@@Z (public: class v8::BooleanObject & __thiscall v8::BooleanObject::operator=(class v8::BooleanObject const &))
       47    ??4Contents@ArrayBuffer@v8@@QAEAAV012@$$QAV012@@Z (public: class v8::ArrayBuffer::Contents & __thiscall v8::ArrayBuffer::Contents::operator=(class v8::ArrayBuffer::Contents &&))
       48    ??4Contents@ArrayBuffer@v8@@QAEAAV012@ABV012@@Z (public: class v8::ArrayBuffer::Contents & __thiscall v8::ArrayBuffer::Contents::operator=(class v8::ArrayBuffer::Contents const &))
       49    ??4Contents@SharedArrayBuffer@v8@@QAEAAV012@$$QAV012@@Z (public: class v8::SharedArrayBuffer::Contents & __thiscall v8::SharedArrayBuffer::Contents::operator=(class v8::SharedArrayBuffer::Contents &&))
       50    ??4Contents@SharedArrayBuffer@v8@@QAEAAV012@ABV012@@Z (public: class v8::SharedArrayBuffer::Contents & __thiscall v8::SharedArrayBuffer::Contents::operator=(class v8::SharedArrayBuffer::Contents const &))
       51    ??4Context@v8@@QAEAAV01@$$QAV01@@Z (public: class v8::Context & __thiscall v8::Context::operator=(class v8::Context &&))
       52    ??4Context@v8@@QAEAAV01@ABV01@@Z (public: class v8::Context & __thiscall v8::Context::operator=(class v8::Context const &))
       53    ??4Data@v8@@QAEAAV01@$$QAV01@@Z (public: class v8::Data & __thiscall v8::Data::operator=(class v8::Data &&))
       54    ??4Data@v8@@QAEAAV01@ABV01@@Z (public: class v8::Data & __thiscall v8::Data::operator=(class v8::Data const &))
       55    ??4DataView@v8@@QAEAAV01@$$QAV01@@Z (public: class v8::DataView & __thiscall v8::DataView::operator=(class v8::DataView &&))
       56    ??4DataView@v8@@QAEAAV01@ABV01@@Z (public: class v8::DataView & __thiscall v8::DataView::operator=(class v8::DataView const &))
       57    ??4Date@v8@@QAEAAV01@$$QAV01@@Z (public: class v8::Date & __thiscall v8::Date::operator=(class v8::Date &&))
       58    ??4Date@v8@@QAEAAV01@ABV01@@Z (public: class v8::Date & __thiscall v8::Date::operator=(class v8::Date const &))
       59    ??4Exception@v8@@QAEAAV01@$$QAV01@@Z (public: class v8::Exception & __thiscall v8::Exception::operator=(class v8::Exception &&))
       60    ??4Exception@v8@@QAEAAV01@ABV01@@Z (public: class v8::Exception & __thiscall v8::Exception::operator=(class v8::Exception const &))
       61    ??4External@v8@@QAEAAV01@$$QAV01@@Z (public: class v8::External & __thiscall v8::External::operator=(class v8::External &&))
       62    ??4External@v8@@QAEAAV01@ABV01@@Z (public: class v8::External & __thiscall v8::External::operator=(class v8::External const &))
       63    ??4ExternalResourceVisitor@v8@@QAEAAV01@ABV01@@Z (public: class v8::ExternalResourceVisitor & __thiscall v8::ExternalResourceVisitor::operator=(class v8::ExternalResourceVisitor const &))
       64    ??4ExternalSourceStream@ScriptCompiler@v8@@QAEAAV012@ABV012@@Z (public: class v8::ScriptCompiler::ExternalSourceStream & __thiscall v8::ScriptCompiler::ExternalSourceStream::operator=(class v8::ScriptCompiler::ExternalSourceStream const &))
       65    ??4Float32Array@v8@@QAEAAV01@$$QAV01@@Z (public: class v8::Float32Array & __thiscall v8::Float32Array::operator=(class v8::Float32Array &&))
       66    ??4Float32Array@v8@@QAEAAV01@ABV01@@Z (public: class v8::Float32Array & __thiscall v8::Float32Array::operator=(class v8::Float32Array const &))
       67    ??4Float64Array@v8@@QAEAAV01@$$QAV01@@Z (public: class v8::Float64Array & __thiscall v8::Float64Array::operator=(class v8::Float64Array &&))
       68    ??4Float64Array@v8@@QAEAAV01@ABV01@@Z (public: class v8::Float64Array & __thiscall v8::Float64Array::operator=(class v8::Float64Array const &))
       69    ??4Function@v8@@QAEAAV01@$$QAV01@@Z (public: class v8::Function & __thiscall v8::Function::operator=(class v8::Function &&))
       70    ??4Function@v8@@QAEAAV01@ABV01@@Z (public: class v8::Function & __thiscall v8::Function::operator=(class v8::Function const &))
       71    ??4FunctionTemplate@v8@@QAEAAV01@$$QAV01@@Z (public: class v8::FunctionTemplate & __thiscall v8::FunctionTemplate::operator=(class v8::FunctionTemplate &&))
       72    ??4FunctionTemplate@v8@@QAEAAV01@ABV01@@Z (public: class v8::FunctionTemplate & __thiscall v8::FunctionTemplate::operator=(class v8::FunctionTemplate const &))
       73    ??4HeapObjectStatistics@v8@@QAEAAV01@$$QAV01@@Z (public: class v8::HeapObjectStatistics & __thiscall v8::HeapObjectStatistics::operator=(class v8::HeapObjectStatistics &&))
       74    ??4HeapObjectStatistics@v8@@QAEAAV01@ABV01@@Z (public: class v8::HeapObjectStatistics & __thiscall v8::HeapObjectStatistics::operator=(class v8::HeapObjectStatistics const &))
       75    ??4HeapSpaceStatistics@v8@@QAEAAV01@$$QAV01@@Z (public: class v8::HeapSpaceStatistics & __thiscall v8::HeapSpaceStatistics::operator=(class v8::HeapSpaceStatistics &&))
       76    ??4HeapSpaceStatistics@v8@@QAEAAV01@ABV01@@Z (public: class v8::HeapSpaceStatistics & __thiscall v8::HeapSpaceStatistics::operator=(class v8::HeapSpaceStatistics const &))
       77    ??4HeapStatistics@v8@@QAEAAV01@$$QAV01@@Z (public: class v8::HeapStatistics & __thiscall v8::HeapStatistics::operator=(class v8::HeapStatistics &&))
       78    ??4HeapStatistics@v8@@QAEAAV01@ABV01@@Z (public: class v8::HeapStatistics & __thiscall v8::HeapStatistics::operator=(class v8::HeapStatistics const &))
       79    ??4Int16Array@v8@@QAEAAV01@$$QAV01@@Z (public: class v8::Int16Array & __thiscall v8::Int16Array::operator=(class v8::Int16Array &&))
       80    ??4Int16Array@v8@@QAEAAV01@ABV01@@Z (public: class v8::Int16Array & __thiscall v8::Int16Array::operator=(class v8::Int16Array const &))
       81    ??4Int32@v8@@QAEAAV01@$$QAV01@@Z (public: class v8::Int32 & __thiscall v8::Int32::operator=(class v8::Int32 &&))
       82    ??4Int32@v8@@QAEAAV01@ABV01@@Z (public: class v8::Int32 & __thiscall v8::Int32::operator=(class v8::Int32 const &))
       83    ??4Int32Array@v8@@QAEAAV01@$$QAV01@@Z (public: class v8::Int32Array & __thiscall v8::Int32Array::operator=(class v8::Int32Array &&))
       84    ??4Int32Array@v8@@QAEAAV01@ABV01@@Z (public: class v8::Int32Array & __thiscall v8::Int32Array::operator=(class v8::Int32Array const &))
       85    ??4Int8Array@v8@@QAEAAV01@$$QAV01@@Z (public: class v8::Int8Array & __thiscall v8::Int8Array::operator=(class v8::Int8Array &&))
       86    ??4Int8Array@v8@@QAEAAV01@ABV01@@Z (public: class v8::Int8Array & __thiscall v8::Int8Array::operator=(class v8::Int8Array const &))
       87    ??4Integer@v8@@QAEAAV01@$$QAV01@@Z (public: class v8::Integer & __thiscall v8::Integer::operator=(class v8::Integer &&))
       88    ??4Integer@v8@@QAEAAV01@ABV01@@Z (public: class v8::Integer & __thiscall v8::Integer::operator=(class v8::Integer const &))
       89    ??4JSON@v8@@QAEAAV01@$$QAV01@@Z (public: class v8::JSON & __thiscall v8::JSON::operator=(class v8::JSON &&))
       90    ??4JSON@v8@@QAEAAV01@ABV01@@Z (public: class v8::JSON & __thiscall v8::JSON::operator=(class v8::JSON const &))
       91    ??4Map@v8@@QAEAAV01@$$QAV01@@Z (public: class v8::Map & __thiscall v8::Map::operator=(class v8::Map &&))
       92    ??4Map@v8@@QAEAAV01@ABV01@@Z (public: class v8::Map & __thiscall v8::Map::operator=(class v8::Map const &))
       93    ??4Message@v8@@QAEAAV01@$$QAV01@@Z (public: class v8::Message & __thiscall v8::Message::operator=(class v8::Message &&))
       94    ??4Message@v8@@QAEAAV01@ABV01@@Z (public: class v8::Message & __thiscall v8::Message::operator=(class v8::Message const &))
       95    ??4Name@v8@@QAEAAV01@$$QAV01@@Z (public: class v8::Name & __thiscall v8::Name::operator=(class v8::Name &&))
       96    ??4Name@v8@@QAEAAV01@ABV01@@Z (public: class v8::Name & __thiscall v8::Name::operator=(class v8::Name const &))
       97    ??4NativeWeakMap@v8@@QAEAAV01@$$QAV01@@Z (public: class v8::NativeWeakMap & __thiscall v8::NativeWeakMap::operator=(class v8::NativeWeakMap &&))
       98    ??4NativeWeakMap@v8@@QAEAAV01@ABV01@@Z (public: class v8::NativeWeakMap & __thiscall v8::NativeWeakMap::operator=(class v8::NativeWeakMap const &))
       99    ??4Number@v8@@QAEAAV01@$$QAV01@@Z (public: class v8::Number & __thiscall v8::Number::operator=(class v8::Number &&))
      100    ??4Number@v8@@QAEAAV01@ABV01@@Z (public: class v8::Number & __thiscall v8::Number::operator=(class v8::Number const &))
      101    ??4NumberObject@v8@@QAEAAV01@$$QAV01@@Z (public: class v8::NumberObject & __thiscall v8::NumberObject::operator=(class v8::NumberObject &&))
      102    ??4NumberObject@v8@@QAEAAV01@ABV01@@Z (public: class v8::NumberObject & __thiscall v8::NumberObject::operator=(class v8::NumberObject const &))
      103    ??4Object@v8@@QAEAAV01@$$QAV01@@Z (public: class v8::Object & __thiscall v8::Object::operator=(class v8::Object &&))
      104    ??4Object@v8@@QAEAAV01@ABV01@@Z (public: class v8::Object & __thiscall v8::Object::operator=(class v8::Object const &))
      105    ??4ObjectTemplate@v8@@QAEAAV01@$$QAV01@@Z (public: class v8::ObjectTemplate & __thiscall v8::ObjectTemplate::operator=(class v8::ObjectTemplate &&))
      106    ??4ObjectTemplate@v8@@QAEAAV01@ABV01@@Z (public: class v8::ObjectTemplate & __thiscall v8::ObjectTemplate::operator=(class v8::ObjectTemplate const &))
      107    ??4PersistentHandleVisitor@v8@@QAEAAV01@ABV01@@Z (public: class v8::PersistentHandleVisitor & __thiscall v8::PersistentHandleVisitor::operator=(class v8::PersistentHandleVisitor const &))
      108    ??4Primitive@v8@@QAEAAV01@$$QAV01@@Z (public: class v8::Primitive & __thiscall v8::Primitive::operator=(class v8::Primitive &&))
      109    ??4Primitive@v8@@QAEAAV01@ABV01@@Z (public: class v8::Primitive & __thiscall v8::Primitive::operator=(class v8::Primitive const &))
      110    ??4Promise@v8@@QAEAAV01@$$QAV01@@Z (public: class v8::Promise & __thiscall v8::Promise::operator=(class v8::Promise &&))
      111    ??4Promise@v8@@QAEAAV01@ABV01@@Z (public: class v8::Promise & __thiscall v8::Promise::operator=(class v8::Promise const &))
      112    ??4RegExp@v8@@QAEAAV01@$$QAV01@@Z (public: class v8::RegExp & __thiscall v8::RegExp::operator=(class v8::RegExp &&))
      113    ??4RegExp@v8@@QAEAAV01@ABV01@@Z (public: class v8::RegExp & __thiscall v8::RegExp::operator=(class v8::RegExp const &))
      114    ??4Resolver@Promise@v8@@QAEAAV012@$$QAV012@@Z (public: class v8::Promise::Resolver & __thiscall v8::Promise::Resolver::operator=(class v8::Promise::Resolver &&))
      115    ??4Resolver@Promise@v8@@QAEAAV012@ABV012@@Z (public: class v8::Promise::Resolver & __thiscall v8::Promise::Resolver::operator=(class v8::Promise::Resolver const &))
      116    ??4ResourceConstraints@v8@@QAEAAV01@$$QAV01@@Z (public: class v8::ResourceConstraints & __thiscall v8::ResourceConstraints::operator=(class v8::ResourceConstraints &&))
      117    ??4ResourceConstraints@v8@@QAEAAV01@ABV01@@Z (public: class v8::ResourceConstraints & __thiscall v8::ResourceConstraints::operator=(class v8::ResourceConstraints const &))
      118    ??4Script@v8@@QAEAAV01@$$QAV01@@Z (public: class v8::Script & __thiscall v8::Script::operator=(class v8::Script &&))
      119    ??4Script@v8@@QAEAAV01@ABV01@@Z (public: class v8::Script & __thiscall v8::Script::operator=(class v8::Script const &))
      120    ??4ScriptCompiler@v8@@QAEAAV01@$$QAV01@@Z (public: class v8::ScriptCompiler & __thiscall v8::ScriptCompiler::operator=(class v8::ScriptCompiler &&))
      121    ??4ScriptCompiler@v8@@QAEAAV01@ABV01@@Z (public: class v8::ScriptCompiler & __thiscall v8::ScriptCompiler::operator=(class v8::ScriptCompiler const &))
      122    ??4Set@v8@@QAEAAV01@$$QAV01@@Z (public: class v8::Set & __thiscall v8::Set::operator=(class v8::Set &&))
      123    ??4Set@v8@@QAEAAV01@ABV01@@Z (public: class v8::Set & __thiscall v8::Set::operator=(class v8::Set const &))
      124    ??4SharedArrayBuffer@v8@@QAEAAV01@$$QAV01@@Z (public: class v8::SharedArrayBuffer & __thiscall v8::SharedArrayBuffer::operator=(class v8::SharedArrayBuffer &&))
      125    ??4SharedArrayBuffer@v8@@QAEAAV01@ABV01@@Z (public: class v8::SharedArrayBuffer & __thiscall v8::SharedArrayBuffer::operator=(class v8::SharedArrayBuffer const &))
      126    ??4Signature@v8@@QAEAAV01@$$QAV01@@Z (public: class v8::Signature & __thiscall v8::Signature::operator=(class v8::Signature &&))
      127    ??4Signature@v8@@QAEAAV01@ABV01@@Z (public: class v8::Signature & __thiscall v8::Signature::operator=(class v8::Signature const &))
      128    ??4StackFrame@v8@@QAEAAV01@$$QAV01@@Z (public: class v8::StackFrame & __thiscall v8::StackFrame::operator=(class v8::StackFrame &&))
      129    ??4StackFrame@v8@@QAEAAV01@ABV01@@Z (public: class v8::StackFrame & __thiscall v8::StackFrame::operator=(class v8::StackFrame const &))
      130    ??4StackTrace@v8@@QAEAAV01@$$QAV01@@Z (public: class v8::StackTrace & __thiscall v8::StackTrace::operator=(class v8::StackTrace &&))
      131    ??4StackTrace@v8@@QAEAAV01@ABV01@@Z (public: class v8::StackTrace & __thiscall v8::StackTrace::operator=(class v8::StackTrace const &))
      132    ??4StartupData@v8@@QAEAAV01@$$QAV01@@Z (public: class v8::StartupData & __thiscall v8::StartupData::operator=(class v8::StartupData &&))
      133    ??4StartupData@v8@@QAEAAV01@ABV01@@Z (public: class v8::StartupData & __thiscall v8::StartupData::operator=(class v8::StartupData const &))
      134    ??4String@v8@@QAEAAV01@$$QAV01@@Z (public: class v8::String & __thiscall v8::String::operator=(class v8::String &&))
      135    ??4String@v8@@QAEAAV01@ABV01@@Z (public: class v8::String & __thiscall v8::String::operator=(class v8::String const &))
      136    ??4StringObject@v8@@QAEAAV01@$$QAV01@@Z (public: class v8::StringObject & __thiscall v8::StringObject::operator=(class v8::StringObject &&))
      137    ??4StringObject@v8@@QAEAAV01@ABV01@@Z (public: class v8::StringObject & __thiscall v8::StringObject::operator=(class v8::StringObject const &))
      138    ??4Symbol@v8@@QAEAAV01@$$QAV01@@Z (public: class v8::Symbol & __thiscall v8::Symbol::operator=(class v8::Symbol &&))
      139    ??4Symbol@v8@@QAEAAV01@ABV01@@Z (public: class v8::Symbol & __thiscall v8::Symbol::operator=(class v8::Symbol const &))
      140    ??4SymbolObject@v8@@QAEAAV01@$$QAV01@@Z (public: class v8::SymbolObject & __thiscall v8::SymbolObject::operator=(class v8::SymbolObject &&))
      141    ??4SymbolObject@v8@@QAEAAV01@ABV01@@Z (public: class v8::SymbolObject & __thiscall v8::SymbolObject::operator=(class v8::SymbolObject const &))
      142    ??4Template@v8@@QAEAAV01@$$QAV01@@Z (public: class v8::Template & __thiscall v8::Template::operator=(class v8::Template &&))
      143    ??4Template@v8@@QAEAAV01@ABV01@@Z (public: class v8::Template & __thiscall v8::Template::operator=(class v8::Template const &))
      144    ??4TypeSwitch@v8@@QAEAAV01@$$QAV01@@Z (public: class v8::TypeSwitch & __thiscall v8::TypeSwitch::operator=(class v8::TypeSwitch &&))
      145    ??4TypeSwitch@v8@@QAEAAV01@ABV01@@Z (public: class v8::TypeSwitch & __thiscall v8::TypeSwitch::operator=(class v8::TypeSwitch const &))
      146    ??4TypedArray@v8@@QAEAAV01@$$QAV01@@Z (public: class v8::TypedArray & __thiscall v8::TypedArray::operator=(class v8::TypedArray &&))
      147    ??4TypedArray@v8@@QAEAAV01@ABV01@@Z (public: class v8::TypedArray & __thiscall v8::TypedArray::operator=(class v8::TypedArray const &))
      148    ??4Uint16Array@v8@@QAEAAV01@$$QAV01@@Z (public: class v8::Uint16Array & __thiscall v8::Uint16Array::operator=(class v8::Uint16Array &&))
      149    ??4Uint16Array@v8@@QAEAAV01@ABV01@@Z (public: class v8::Uint16Array & __thiscall v8::Uint16Array::operator=(class v8::Uint16Array const &))
      150    ??4Uint32@v8@@QAEAAV01@$$QAV01@@Z (public: class v8::Uint32 & __thiscall v8::Uint32::operator=(class v8::Uint32 &&))
      151    ??4Uint32@v8@@QAEAAV01@ABV01@@Z (public: class v8::Uint32 & __thiscall v8::Uint32::operator=(class v8::Uint32 const &))
      152    ??4Uint32Array@v8@@QAEAAV01@$$QAV01@@Z (public: class v8::Uint32Array & __thiscall v8::Uint32Array::operator=(class v8::Uint32Array &&))
      153    ??4Uint32Array@v8@@QAEAAV01@ABV01@@Z (public: class v8::Uint32Array & __thiscall v8::Uint32Array::operator=(class v8::Uint32Array const &))
      154    ??4Uint8Array@v8@@QAEAAV01@$$QAV01@@Z (public: class v8::Uint8Array & __thiscall v8::Uint8Array::operator=(class v8::Uint8Array &&))
      155    ??4Uint8Array@v8@@QAEAAV01@ABV01@@Z (public: class v8::Uint8Array & __thiscall v8::Uint8Array::operator=(class v8::Uint8Array const &))
      156    ??4Uint8ClampedArray@v8@@QAEAAV01@$$QAV01@@Z (public: class v8::Uint8ClampedArray & __thiscall v8::Uint8ClampedArray::operator=(class v8::Uint8ClampedArray &&))
      157    ??4Uint8ClampedArray@v8@@QAEAAV01@ABV01@@Z (public: class v8::Uint8ClampedArray & __thiscall v8::Uint8ClampedArray::operator=(class v8::Uint8ClampedArray const &))
      158    ??4UnboundScript@v8@@QAEAAV01@$$QAV01@@Z (public: class v8::UnboundScript & __thiscall v8::UnboundScript::operator=(class v8::UnboundScript &&))
      159    ??4UnboundScript@v8@@QAEAAV01@ABV01@@Z (public: class v8::UnboundScript & __thiscall v8::UnboundScript::operator=(class v8::UnboundScript const &))
      160    ??4Unlocker@v8@@QAEAAV01@ABV01@@Z (public: class v8::Unlocker & __thiscall v8::Unlocker::operator=(class v8::Unlocker const &))
      161    ??4V8@v8@@QAEAAV01@$$QAV01@@Z (public: class v8::V8 & __thiscall v8::V8::operator=(class v8::V8 &&))
      162    ??4V8@v8@@QAEAAV01@ABV01@@Z (public: class v8::V8 & __thiscall v8::V8::operator=(class v8::V8 const &))
      163    ??4Value@v8@@QAEAAV01@$$QAV01@@Z (public: class v8::Value & __thiscall v8::Value::operator=(class v8::Value &&))
      164    ??4Value@v8@@QAEAAV01@ABV01@@Z (public: class v8::Value & __thiscall v8::Value::operator=(class v8::Value const &))
      165    ??DUtf8Value@String@v8@@QAEPADXZ (public: char * __thiscall v8::String::Utf8Value::operator*(void))
      166    ??DUtf8Value@String@v8@@QBEPBDXZ (public: char const * __thiscall v8::String::Utf8Value::operator*(void)const )
      167    ??DValue@String@v8@@QAEPAGXZ (public: unsigned short * __thiscall v8::String::Value::operator*(void))
      168    ??DValue@String@v8@@QBEPBGXZ (public: unsigned short const * __thiscall v8::String::Value::operator*(void)const )
      169    ??_7Allocator@ArrayBuffer@v8@@6B@ (const v8::ArrayBuffer::Allocator::`vftable')
      170    ??_7Extension@v8@@6B@ (const v8::Extension::`vftable')
      171    ??_7ExternalOneByteStringResource@String@v8@@6B@ (const v8::String::ExternalOneByteStringResource::`vftable')
      172    ??_7ExternalOneByteStringResourceImpl@v8@@6B@ (const v8::ExternalOneByteStringResourceImpl::`vftable')
      173    ??_7ExternalResourceVisitor@v8@@6B@ (const v8::ExternalResourceVisitor::`vftable')
      174    ??_7ExternalSourceStream@ScriptCompiler@v8@@6B@ (const v8::ScriptCompiler::ExternalSourceStream::`vftable')
      175    ??_7ExternalStringResource@String@v8@@6B@ (const v8::String::ExternalStringResource::`vftable')
      176    ??_7ExternalStringResourceBase@String@v8@@6B@ (const v8::String::ExternalStringResourceBase::`vftable')
      177    ??_7PersistentHandleVisitor@v8@@6B@ (const v8::PersistentHandleVisitor::`vftable')
      178    ?AddMemoryAllocationCallback@V8@v8@@SAXP6AXW4ObjectSpace@2@W4AllocationAction@2@H@Z01@Z (public: static void __cdecl v8::V8::AddMemoryAllocationCallback(void (__cdecl*)(enum v8::ObjectSpace,enum v8::AllocationAction,int),enum v8::ObjectSpace,enum v8::AllocationAction))
      179    ?AddMessageListener@V8@v8@@SA_NP6AXV?$Local@VMessage@v8@@@2@V?$Local@VValue@v8@@@2@@Z1@Z (public: static bool __cdecl v8::V8::AddMessageListener(void (__cdecl*)(class v8::Local<class v8::Message>,class v8::Local<class v8::Value>),class v8::Local<class v8::Value>))
      180    ?AdjustAmountOfExternalAllocatedMemory@Isolate@v8@@QAE_J_J@Z (public: __int64 __thiscall v8::Isolate::AdjustAmountOfExternalAllocatedMemory(__int64))
      181    ?ByteLength@Contents@ArrayBuffer@v8@@QBEIXZ (public: unsigned int __thiscall v8::ArrayBuffer::Contents::ByteLength(void)const )
      182    ?ByteLength@Contents@SharedArrayBuffer@v8@@QBEIXZ (public: unsigned int __thiscall v8::SharedArrayBuffer::Contents::ByteLength(void)const )
      183    ?CancelTerminateExecution@V8@v8@@SAXPAVIsolate@2@@Z (public: static void __cdecl v8::V8::CancelTerminateExecution(class v8::Isolate *))
      184    ?Cast@Array@v8@@SAPAV12@PAVValue@2@@Z (public: static class v8::Array * __cdecl v8::Array::Cast(class v8::Value *))
      185    ?Cast@ArrayBuffer@v8@@SAPAV12@PAVValue@2@@Z (public: static class v8::ArrayBuffer * __cdecl v8::ArrayBuffer::Cast(class v8::Value *))
      186    ?Cast@ArrayBufferView@v8@@SAPAV12@PAVValue@2@@Z (public: static class v8::ArrayBufferView * __cdecl v8::ArrayBufferView::Cast(class v8::Value *))
      187    ?Cast@Boolean@v8@@SAPAV12@PAVValue@2@@Z (public: static class v8::Boolean * __cdecl v8::Boolean::Cast(class v8::Value *))
      188    ?Cast@BooleanObject@v8@@SAPAV12@PAVValue@2@@Z (public: static class v8::BooleanObject * __cdecl v8::BooleanObject::Cast(class v8::Value *))
      189    ?Cast@DataView@v8@@SAPAV12@PAVValue@2@@Z (public: static class v8::DataView * __cdecl v8::DataView::Cast(class v8::Value *))
      190    ?Cast@Date@v8@@SAPAV12@PAVValue@2@@Z (public: static class v8::Date * __cdecl v8::Date::Cast(class v8::Value *))
      191    ?Cast@External@v8@@SAPAV12@PAVValue@2@@Z (public: static class v8::External * __cdecl v8::External::Cast(class v8::Value *))
      192    ?Cast@Float32Array@v8@@SAPAV12@PAVValue@2@@Z (public: static class v8::Float32Array * __cdecl v8::Float32Array::Cast(class v8::Value *))
      193    ?Cast@Float64Array@v8@@SAPAV12@PAVValue@2@@Z (public: static class v8::Float64Array * __cdecl v8::Float64Array::Cast(class v8::Value *))
      194    ?Cast@Function@v8@@SAPAV12@PAVValue@2@@Z (public: static class v8::Function * __cdecl v8::Function::Cast(class v8::Value *))
      195    ?Cast@Int16Array@v8@@SAPAV12@PAVValue@2@@Z (public: static class v8::Int16Array * __cdecl v8::Int16Array::Cast(class v8::Value *))
      196    ?Cast@Int32@v8@@SAPAV12@PAVValue@2@@Z (public: static class v8::Int32 * __cdecl v8::Int32::Cast(class v8::Value *))
      197    ?Cast@Int32Array@v8@@SAPAV12@PAVValue@2@@Z (public: static class v8::Int32Array * __cdecl v8::Int32Array::Cast(class v8::Value *))
      198    ?Cast@Int8Array@v8@@SAPAV12@PAVValue@2@@Z (public: static class v8::Int8Array * __cdecl v8::Int8Array::Cast(class v8::Value *))
      199    ?Cast@Integer@v8@@SAPAV12@PAVValue@2@@Z (public: static class v8::Integer * __cdecl v8::Integer::Cast(class v8::Value *))
      200    ?Cast@Map@v8@@SAPAV12@PAVValue@2@@Z (public: static class v8::Map * __cdecl v8::Map::Cast(class v8::Value *))
      201    ?Cast@Name@v8@@SAPAV12@PAVValue@2@@Z (public: static class v8::Name * __cdecl v8::Name::Cast(class v8::Value *))
      202    ?Cast@Number@v8@@SAPAV12@PAVValue@2@@Z (public: static class v8::Number * __cdecl v8::Number::Cast(class v8::Value *))
      203    ?Cast@NumberObject@v8@@SAPAV12@PAVValue@2@@Z (public: static class v8::NumberObject * __cdecl v8::NumberObject::Cast(class v8::Value *))
      204    ?Cast@Object@v8@@SAPAV12@PAVValue@2@@Z (public: static class v8::Object * __cdecl v8::Object::Cast(class v8::Value *))
      205    ?Cast@Promise@v8@@SAPAV12@PAVValue@2@@Z (public: static class v8::Promise * __cdecl v8::Promise::Cast(class v8::Value *))
      206    ?Cast@RegExp@v8@@SAPAV12@PAVValue@2@@Z (public: static class v8::RegExp * __cdecl v8::RegExp::Cast(class v8::Value *))
      207    ?Cast@Resolver@Promise@v8@@SAPAV123@PAVValue@3@@Z (public: static class v8::Promise::Resolver * __cdecl v8::Promise::Resolver::Cast(class v8::Value *))
      208    ?Cast@Set@v8@@SAPAV12@PAVValue@2@@Z (public: static class v8::Set * __cdecl v8::Set::Cast(class v8::Value *))
      209    ?Cast@SharedArrayBuffer@v8@@SAPAV12@PAVValue@2@@Z (public: static class v8::SharedArrayBuffer * __cdecl v8::SharedArrayBuffer::Cast(class v8::Value *))
      210    ?Cast@String@v8@@SAPAV12@PAVValue@2@@Z (public: static class v8::String * __cdecl v8::String::Cast(class v8::Value *))
      211    ?Cast@StringObject@v8@@SAPAV12@PAVValue@2@@Z (public: static class v8::StringObject * __cdecl v8::StringObject::Cast(class v8::Value *))
      212    ?Cast@Symbol@v8@@SAPAV12@PAVValue@2@@Z (public: static class v8::Symbol * __cdecl v8::Symbol::Cast(class v8::Value *))
      213    ?Cast@SymbolObject@v8@@SAPAV12@PAVValue@2@@Z (public: static class v8::SymbolObject * __cdecl v8::SymbolObject::Cast(class v8::Value *))
      214    ?Cast@TypedArray@v8@@SAPAV12@PAVValue@2@@Z (public: static class v8::TypedArray * __cdecl v8::TypedArray::Cast(class v8::Value *))
      215    ?Cast@Uint16Array@v8@@SAPAV12@PAVValue@2@@Z (public: static class v8::Uint16Array * __cdecl v8::Uint16Array::Cast(class v8::Value *))
      216    ?Cast@Uint32@v8@@SAPAV12@PAVValue@2@@Z (public: static class v8::Uint32 * __cdecl v8::Uint32::Cast(class v8::Value *))
      217    ?Cast@Uint32Array@v8@@SAPAV12@PAVValue@2@@Z (public: static class v8::Uint32Array * __cdecl v8::Uint32Array::Cast(class v8::Value *))
      218    ?Cast@Uint8Array@v8@@SAPAV12@PAVValue@2@@Z (public: static class v8::Uint8Array * __cdecl v8::Uint8Array::Cast(class v8::Value *))
      219    ?Cast@Uint8ClampedArray@v8@@SAPAV12@PAVValue@2@@Z (public: static class v8::Uint8ClampedArray * __cdecl v8::Uint8ClampedArray::Cast(class v8::Value *))
      220    ?Data@Contents@ArrayBuffer@v8@@QBEPAXXZ (public: void * __thiscall v8::ArrayBuffer::Contents::Data(void)const )
      221    ?Data@Contents@SharedArrayBuffer@v8@@QBEPAXXZ (public: void * __thiscall v8::SharedArrayBuffer::Contents::Data(void)const )
      222    ?Dispose@ExternalStringResourceBase@String@v8@@MAEXXZ (protected: virtual void __thiscall v8::String::ExternalStringResourceBase::Dispose(void))
      223    ?Empty@String@v8@@SA?AV?$Local@VString@v8@@@2@PAVIsolate@2@@Z (public: static class v8::Local<class v8::String> __cdecl v8::String::Empty(class v8::Isolate *))
      224    ?GetAlignedPointerFromEmbedderData@Context@v8@@QAEPAXH@Z (public: void * __thiscall v8::Context::GetAlignedPointerFromEmbedderData(int))
      225    ?GetAlignedPointerFromInternalField@Object@v8@@QAEPAXH@Z (public: void * __thiscall v8::Object::GetAlignedPointerFromInternalField(int))
      226    ?GetAlignedPointerFromInternalField@Object@v8@@SAPAXABV?$PersistentBase@VObject@v8@@@2@H@Z (public: static void * __cdecl v8::Object::GetAlignedPointerFromInternalField(class v8::PersistentBase<class v8::Object> const &,int))
      227    ?GetData@Isolate@v8@@QAEPAXI@Z (public: void * __thiscall v8::Isolate::GetData(unsigned int))
      228    ?GetEmbedderData@Context@v8@@QAE?AV?$Local@VValue@v8@@@2@H@Z (public: class v8::Local<class v8::Value> __thiscall v8::Context::GetEmbedderData(int))
      229    ?GetExternalStringResource@String@v8@@QBEPAVExternalStringResource@12@XZ (public: class v8::String::ExternalStringResource * __thiscall v8::String::GetExternalStringResource(void)const )
      230    ?GetExternalStringResourceBase@String@v8@@QBEPAVExternalStringResourceBase@12@PAW4Encoding@12@@Z (public: class v8::String::ExternalStringResourceBase * __thiscall v8::String::GetExternalStringResourceBase(enum v8::String::Encoding *)const )
      231    ?GetInternalField@Object@v8@@QAE?AV?$Local@VValue@v8@@@2@H@Z (public: class v8::Local<class v8::Value> __thiscall v8::Object::GetInternalField(int))
      232    ?GetIsolate@HandleScope@v8@@QBEPAVIsolate@2@XZ (public: class v8::Isolate * __thiscall v8::HandleScope::GetIsolate(void)const )
      233    ?GetNativeFunctionTemplate@Extension@v8@@UAE?AV?$Local@VFunctionTemplate@v8@@@2@PAVIsolate@2@V?$Local@VString@v8@@@2@@Z (public: virtual class v8::Local<class v8::FunctionTemplate> __thiscall v8::Extension::GetNativeFunctionTemplate(class v8::Isolate *,class v8::Local<class v8::String>))
      234    ?GetNumberOfDataSlots@Isolate@v8@@SAIXZ (public: static unsigned int __cdecl v8::Isolate::GetNumberOfDataSlots(void))
      235    ?InternalFieldCount@Object@v8@@SAHABV?$PersistentBase@VObject@v8@@@2@@Z (public: static int __cdecl v8::Object::InternalFieldCount(class v8::PersistentBase<class v8::Object> const &))
      236    ?IsDead@V8@v8@@SA_NXZ (public: static bool __cdecl v8::V8::IsDead(void))
      237    ?IsExecutionTerminating@V8@v8@@SA_NPAVIsolate@2@@Z (public: static bool __cdecl v8::V8::IsExecutionTerminating(class v8::Isolate *))
      238    ?IsNull@Value@v8@@QBE_NXZ (public: bool __thiscall v8::Value::IsNull(void)const )
      239    ?IsString@Value@v8@@QBE_NXZ (public: bool __thiscall v8::Value::IsString(void)const )
      240    ?IsUndefined@Value@v8@@QBE_NXZ (public: bool __thiscall v8::Value::IsUndefined(void)const )
      241    ?JSStackComparableAddress@TryCatch@v8@@SAPAXPAV12@@Z (public: static void * __cdecl v8::TryCatch::JSStackComparableAddress(class v8::TryCatch *))
      242    ?New@Boolean@v8@@SA?AV?$Local@VBoolean@v8@@@2@PAVIsolate@2@_N@Z (public: static class v8::Local<class v8::Boolean> __cdecl v8::Boolean::New(class v8::Isolate *,bool))
      243    ?NewInstance@Function@v8@@QBE?AV?$MaybeLocal@VObject@v8@@@2@V?$Local@VContext@v8@@@2@@Z (public: class v8::MaybeLocal<class v8::Object> __thiscall v8::Function::NewInstance(class v8::Local<class v8::Context>)const )
      244    ?QuickIsNull@Value@v8@@ABE_NXZ (private: bool __thiscall v8::Value::QuickIsNull(void)const )
      245    ?QuickIsString@Value@v8@@ABE_NXZ (private: bool __thiscall v8::Value::QuickIsString(void)const )
      246    ?QuickIsUndefined@Value@v8@@ABE_NXZ (private: bool __thiscall v8::Value::QuickIsUndefined(void)const )
      247    ?RemoveGCEpilogueCallback@V8@v8@@SAXP6AXW4GCType@2@W4GCCallbackFlags@2@@Z@Z (public: static void __cdecl v8::V8::RemoveGCEpilogueCallback(void (__cdecl*)(enum v8::GCType,enum v8::GCCallbackFlags)))
      248    ?RemoveGCPrologueCallback@V8@v8@@SAXP6AXW4GCType@2@W4GCCallbackFlags@2@@Z@Z (public: static void __cdecl v8::V8::RemoveGCPrologueCallback(void (__cdecl*)(enum v8::GCType,enum v8::GCCallbackFlags)))
      249    ?RemoveMemoryAllocationCallback@V8@v8@@SAXP6AXW4ObjectSpace@2@W4AllocationAction@2@H@Z@Z (public: static void __cdecl v8::V8::RemoveMemoryAllocationCallback(void (__cdecl*)(enum v8::ObjectSpace,enum v8::AllocationAction,int)))
      250    ?RemoveMessageListeners@V8@v8@@SAXP6AXV?$Local@VMessage@v8@@@2@V?$Local@VValue@v8@@@2@@Z@Z (public: static void __cdecl v8::V8::RemoveMessageListeners(void (__cdecl*)(class v8::Local<class v8::Message>,class v8::Local<class v8::Value>)))
      251    ?Set@Template@v8@@QAEXPAVIsolate@2@PBDV?$Local@VData@v8@@@2@@Z (public: void __thiscall v8::Template::Set(class v8::Isolate *,char const *,class v8::Local<class v8::Data>))
      252    ?SetAllowCodeGenerationFromStringsCallback@V8@v8@@SAXP6A_NV?$Local@VContext@v8@@@2@@Z@Z (public: static void __cdecl v8::V8::SetAllowCodeGenerationFromStringsCallback(bool (__cdecl*)(class v8::Local<class v8::Context>)))
      253    ?SetCaptureStackTraceForUncaughtExceptions@V8@v8@@SAX_NHW4StackTraceOptions@StackTrace@2@@Z (public: static void __cdecl v8::V8::SetCaptureStackTraceForUncaughtExceptions(bool,int,enum v8::StackTrace::StackTraceOptions))
      254    ?SetData@Isolate@v8@@QAEXIPAX@Z (public: void __thiscall v8::Isolate::SetData(unsigned int,void *))
      255    ?SetFailedAccessCheckCallbackFunction@V8@v8@@SAXP6AXV?$Local@VObject@v8@@@2@W4AccessType@2@V?$Local@VValue@v8@@@2@@Z@Z (public: static void __cdecl v8::V8::SetFailedAccessCheckCallbackFunction(void (__cdecl*)(class v8::Local<class v8::Object>,enum v8::AccessType,class v8::Local<class v8::Value>)))
      256    ?SetFatalErrorHandler@V8@v8@@SAXP6AXPBD0@Z@Z (public: static void __cdecl v8::V8::SetFatalErrorHandler(void (__cdecl*)(char const *,char const *)))
      257    ?SetIndexedPropertyHandler@ObjectTemplate@v8@@QAEXP6AXIABV?$PropertyCallbackInfo@VValue@v8@@@2@@ZP6AXIV?$Local@VValue@v8@@@2@0@ZP6AXIABV?$PropertyCallbackInfo@VInteger@v8@@@2@@ZP6AXIABV?$PropertyCallbackInfo@VBoolean@v8@@@2@@ZP6AXABV?$PropertyCallbackInfo@VArray@v8@@@2@@Z2@Z (public: void __thiscall v8::ObjectTemplate::SetIndexedPropertyHandler(void (__cdecl*)(unsigned int,class v8::PropertyCallbackInfo<class v8::Value> const &),void (__cdecl*)(unsigned int,class v8::Local<class v8::Value>,class v8::PropertyCallbackInfo<class v8::Value> const &),void (__cdecl*)(unsigned int,class v8::PropertyCallbackInfo<class v8::Integer> const &),void (__cdecl*)(unsigned int,class v8::PropertyCallbackInfo<class v8::Boolean> const &),void (__cdecl*)(class v8::PropertyCallbackInfo<class v8::Array> const &),class v8::Local<class v8::Value>))
      258    ?TerminateExecution@V8@v8@@SAXPAVIsolate@2@@Z (public: static void __cdecl v8::V8::TerminateExecution(class v8::Isolate *))
      259    ?ToBoolean@Value@v8@@QBE?AV?$Local@VBoolean@v8@@@2@XZ (public: class v8::Local<class v8::Boolean> __thiscall v8::Value::ToBoolean(void)const )
      260    ?ToDetailString@Value@v8@@QBE?AV?$Local@VString@v8@@@2@XZ (public: class v8::Local<class v8::String> __thiscall v8::Value::ToDetailString(void)const )
      261    ?ToInt32@Value@v8@@QBE?AV?$Local@VInt32@v8@@@2@XZ (public: class v8::Local<class v8::Int32> __thiscall v8::Value::ToInt32(void)const )
      262    ?ToInteger@Value@v8@@QBE?AV?$Local@VInteger@v8@@@2@XZ (public: class v8::Local<class v8::Integer> __thiscall v8::Value::ToInteger(void)const )
      263    ?ToNumber@Value@v8@@QBE?AV?$Local@VNumber@v8@@@2@XZ (public: class v8::Local<class v8::Number> __thiscall v8::Value::ToNumber(void)const )
      264    ?ToObject@Value@v8@@QBE?AV?$Local@VObject@v8@@@2@XZ (public: class v8::Local<class v8::Object> __thiscall v8::Value::ToObject(void)const )
      265    ?ToString@Value@v8@@QBE?AV?$Local@VString@v8@@@2@XZ (public: class v8::Local<class v8::String> __thiscall v8::Value::ToString(void)const )
      266    ?ToUint32@Value@v8@@QBE?AV?$Local@VUint32@v8@@@2@XZ (public: class v8::Local<class v8::Uint32> __thiscall v8::Value::ToUint32(void)const )
      267    ?VisitExternalResources@V8@v8@@SAXPAVExternalResourceVisitor@2@@Z (public: static void __cdecl v8::V8::VisitExternalResources(class v8::ExternalResourceVisitor *))
      268    ?VisitExternalString@ExternalResourceVisitor@v8@@UAEXV?$Local@VString@v8@@@2@@Z (public: virtual void __thiscall v8::ExternalResourceVisitor::VisitExternalString(class v8::Local<class v8::String>))
      269    ?VisitHandlesForPartialDependence@V8@v8@@SAXPAVIsolate@2@PAVPersistentHandleVisitor@2@@Z (public: static void __cdecl v8::V8::VisitHandlesForPartialDependence(class v8::Isolate *,class v8::PersistentHandleVisitor *))
      270    ?VisitHandlesWithClassIds@V8@v8@@SAXPAVIsolate@2@PAVPersistentHandleVisitor@2@@Z (public: static void __cdecl v8::V8::VisitHandlesWithClassIds(class v8::Isolate *,class v8::PersistentHandleVisitor *))
      271    ?VisitHandlesWithClassIds@V8@v8@@SAXPAVPersistentHandleVisitor@2@@Z (public: static void __cdecl v8::V8::VisitHandlesWithClassIds(class v8::PersistentHandleVisitor *))
      272    ?VisitPersistentHandle@PersistentHandleVisitor@v8@@UAEXPAV?$Persistent@VValue@v8@@V?$NonCopyablePersistentTraits@VValue@v8@@@2@@2@G@Z (public: virtual void __thiscall v8::PersistentHandleVisitor::VisitPersistentHandle(class v8::Persistent<class v8::Value,class v8::NonCopyablePersistentTraits<class v8::Value> > *,unsigned short))
      273    ?auto_enable@Extension@v8@@QAE_NXZ (public: bool __thiscall v8::Extension::auto_enable(void))
      274    ?begin@ExtensionConfiguration@v8@@QBEPAPBDXZ (public: char const * * __thiscall v8::ExtensionConfiguration::begin(void)const )
      275    ?code_range_size@ResourceConstraints@v8@@QBEIXZ (public: unsigned int __thiscall v8::ResourceConstraints::code_range_size(void)const )
      276    ?data@ExternalOneByteStringResourceImpl@v8@@UBEPBDXZ (public: virtual char const * __thiscall v8::ExternalOneByteStringResourceImpl::data(void)const )
      277    ?dependencies@Extension@v8@@QAEPAPBDXZ (public: char const * * __thiscall v8::Extension::dependencies(void))
      278    ?dependency_count@Extension@v8@@QAEHXZ (public: int __thiscall v8::Extension::dependency_count(void))
      279    ?end@ExtensionConfiguration@v8@@QBEPAPBDXZ (public: char const * * __thiscall v8::ExtensionConfiguration::end(void)const )
      280    ?heap_size_limit@HeapStatistics@v8@@QAEIXZ (public: unsigned int __thiscall v8::HeapStatistics::heap_size_limit(void))
      281    ?impl@StreamedSource@ScriptCompiler@v8@@QBEPAU1internal@3@XZ (public: struct v8::internal::StreamedSource * __thiscall v8::ScriptCompiler::StreamedSource::impl(void)const )
      282    ?length@ExternalOneByteStringResourceImpl@v8@@UBEIXZ (public: virtual unsigned int __thiscall v8::ExternalOneByteStringResourceImpl::length(void)const )
      283    ?length@Utf8Value@String@v8@@QBEHXZ (public: int __thiscall v8::String::Utf8Value::length(void)const )
      284    ?length@Value@String@v8@@QBEHXZ (public: int __thiscall v8::String::Value::length(void)const )
      285    ?max_executable_size@ResourceConstraints@v8@@QBEHXZ (public: int __thiscall v8::ResourceConstraints::max_executable_size(void)const )
      286    ?max_old_space_size@ResourceConstraints@v8@@QBEHXZ (public: int __thiscall v8::ResourceConstraints::max_old_space_size(void)const )
      287    ?max_semi_space_size@ResourceConstraints@v8@@QBEHXZ (public: int __thiscall v8::ResourceConstraints::max_semi_space_size(void)const )
      288    ?name@Extension@v8@@QBEPBDXZ (public: char const * __thiscall v8::Extension::name(void)const )
      289    ?object_count@HeapObjectStatistics@v8@@QAEIXZ (public: unsigned int __thiscall v8::HeapObjectStatistics::object_count(void))
      290    ?object_size@HeapObjectStatistics@v8@@QAEIXZ (public: unsigned int __thiscall v8::HeapObjectStatistics::object_size(void))
      291    ?object_sub_type@HeapObjectStatistics@v8@@QAEPBDXZ (public: char const * __thiscall v8::HeapObjectStatistics::object_sub_type(void))
      292    ?object_type@HeapObjectStatistics@v8@@QAEPBDXZ (public: char const * __thiscall v8::HeapObjectStatistics::object_type(void))
      293    ?physical_space_size@HeapSpaceStatistics@v8@@QAEIXZ (public: unsigned int __thiscall v8::HeapSpaceStatistics::physical_space_size(void))
      294    ?set_auto_enable@Extension@v8@@QAEX_N@Z (public: void __thiscall v8::Extension::set_auto_enable(bool))
      295    ?set_code_range_size@ResourceConstraints@v8@@QAEXI@Z (public: void __thiscall v8::ResourceConstraints::set_code_range_size(unsigned int))
      296    ?set_max_executable_size@ResourceConstraints@v8@@QAEXH@Z (public: void __thiscall v8::ResourceConstraints::set_max_executable_size(int))
      297    ?set_max_old_space_size@ResourceConstraints@v8@@QAEXH@Z (public: void __thiscall v8::ResourceConstraints::set_max_old_space_size(int))
      298    ?set_max_semi_space_size@ResourceConstraints@v8@@QAEXH@Z (public: void __thiscall v8::ResourceConstraints::set_max_semi_space_size(int))
      299    ?set_stack_limit@ResourceConstraints@v8@@QAEXPAI@Z (public: void __thiscall v8::ResourceConstraints::set_stack_limit(unsigned int *))
      300    ?source@Extension@v8@@QBEPBVExternalOneByteStringResource@String@2@XZ (public: class v8::String::ExternalOneByteStringResource const * __thiscall v8::Extension::source(void)const )
      301    ?source_length@Extension@v8@@QBEIXZ (public: unsigned int __thiscall v8::Extension::source_length(void)const )
      302    ?space_available_size@HeapSpaceStatistics@v8@@QAEIXZ (public: unsigned int __thiscall v8::HeapSpaceStatistics::space_available_size(void))
      303    ?space_name@HeapSpaceStatistics@v8@@QAEPBDXZ (public: char const * __thiscall v8::HeapSpaceStatistics::space_name(void))
      304    ?space_size@HeapSpaceStatistics@v8@@QAEIXZ (public: unsigned int __thiscall v8::HeapSpaceStatistics::space_size(void))
      305    ?space_used_size@HeapSpaceStatistics@v8@@QAEIXZ (public: unsigned int __thiscall v8::HeapSpaceStatistics::space_used_size(void))
      306    ?stack_limit@ResourceConstraints@v8@@QBEPAIXZ (public: unsigned int * __thiscall v8::ResourceConstraints::stack_limit(void)const )
      307    ?total_available_size@HeapStatistics@v8@@QAEIXZ (public: unsigned int __thiscall v8::HeapStatistics::total_available_size(void))
      308    ?total_heap_size@HeapStatistics@v8@@QAEIXZ (public: unsigned int __thiscall v8::HeapStatistics::total_heap_size(void))
      309    ?total_heap_size_executable@HeapStatistics@v8@@QAEIXZ (public: unsigned int __thiscall v8::HeapStatistics::total_heap_size_executable(void))
      310    ?total_physical_size@HeapStatistics@v8@@QAEIXZ (public: unsigned int __thiscall v8::HeapStatistics::total_physical_size(void))
      311    ?used_heap_size@HeapStatistics@v8@@QAEIXZ (public: unsigned int __thiscall v8::HeapStatistics::used_heap_size(void))
      312    __register_odbc_bindings_
               exported name: _register_odbc_bindings_
